
SORTING_PROJECT_FINAL.elf:     file format elf32-avr

Sections:
Idx Name          Size      VMA       LMA       File off  Algn
  0 .data         00000082  00800100  000020b0  00002144  2**0
                  CONTENTS, ALLOC, LOAD, DATA
  1 .text         000020b0  00000000  00000000  00000094  2**1
                  CONTENTS, ALLOC, LOAD, READONLY, CODE
  2 .bss          000005aa  00800182  00800182  000021c6  2**0
                  ALLOC
  3 .comment      0000005c  00000000  00000000  000021c6  2**0
                  CONTENTS, READONLY
  4 .note.gnu.avr.deviceinfo 00000040  00000000  00000000  00002224  2**2
                  CONTENTS, READONLY
  5 .debug_aranges 00000220  00000000  00000000  00002264  2**0
                  CONTENTS, READONLY, DEBUGGING
  6 .debug_info   00003b5e  00000000  00000000  00002484  2**0
                  CONTENTS, READONLY, DEBUGGING
  7 .debug_abbrev 0000110a  00000000  00000000  00005fe2  2**0
                  CONTENTS, READONLY, DEBUGGING
  8 .debug_line   00001733  00000000  00000000  000070ec  2**0
                  CONTENTS, READONLY, DEBUGGING
  9 .debug_frame  0000071c  00000000  00000000  00008820  2**2
                  CONTENTS, READONLY, DEBUGGING
 10 .debug_str    00000ba7  00000000  00000000  00008f3c  2**0
                  CONTENTS, READONLY, DEBUGGING
 11 .debug_loc    0000220b  00000000  00000000  00009ae3  2**0
                  CONTENTS, READONLY, DEBUGGING
 12 .debug_ranges 00000258  00000000  00000000  0000bcee  2**0
                  CONTENTS, READONLY, DEBUGGING

Disassembly of section .text:

00000000 <__vectors>:
       0:	c9 c2       	rjmp	.+1426   	; 0x594 <__ctors_end>
       2:	00 00       	nop
       4:	0c 94 9d 0a 	jmp	0x153a	; 0x153a <__vector_1>
       8:	0c 94 a7 0a 	jmp	0x154e	; 0x154e <__vector_2>
       c:	0c 94 b1 0a 	jmp	0x1562	; 0x1562 <__vector_3>
      10:	0c 94 d1 0a 	jmp	0x15a2	; 0x15a2 <__vector_4>
      14:	0c 94 69 0b 	jmp	0x16d2	; 0x16d2 <__vector_5>
      18:	0c 94 78 0b 	jmp	0x16f0	; 0x16f0 <__vector_6>
      1c:	0c 94 e0 0a 	jmp	0x15c0	; 0x15c0 <__vector_7>
      20:	0c 94 01 0b 	jmp	0x1602	; 0x1602 <__vector_8>
      24:	0c 94 87 0b 	jmp	0x170e	; 0x170e <__vector_9>
      28:	d3 c2       	rjmp	.+1446   	; 0x5d0 <__bad_interrupt>
      2a:	00 00       	nop
      2c:	d1 c2       	rjmp	.+1442   	; 0x5d0 <__bad_interrupt>
      2e:	00 00       	nop
      30:	cf c2       	rjmp	.+1438   	; 0x5d0 <__bad_interrupt>
      32:	00 00       	nop
      34:	cd c2       	rjmp	.+1434   	; 0x5d0 <__bad_interrupt>
      36:	00 00       	nop
      38:	cb c2       	rjmp	.+1430   	; 0x5d0 <__bad_interrupt>
      3a:	00 00       	nop
      3c:	c9 c2       	rjmp	.+1426   	; 0x5d0 <__bad_interrupt>
      3e:	00 00       	nop
      40:	c7 c2       	rjmp	.+1422   	; 0x5d0 <__bad_interrupt>
      42:	00 00       	nop
      44:	c5 c2       	rjmp	.+1418   	; 0x5d0 <__bad_interrupt>
      46:	00 00       	nop
      48:	c3 c2       	rjmp	.+1414   	; 0x5d0 <__bad_interrupt>
      4a:	00 00       	nop
      4c:	c1 c2       	rjmp	.+1410   	; 0x5d0 <__bad_interrupt>
      4e:	00 00       	nop
      50:	bf c2       	rjmp	.+1406   	; 0x5d0 <__bad_interrupt>
      52:	00 00       	nop
      54:	bd c2       	rjmp	.+1402   	; 0x5d0 <__bad_interrupt>
      56:	00 00       	nop
      58:	bb c2       	rjmp	.+1398   	; 0x5d0 <__bad_interrupt>
      5a:	00 00       	nop
      5c:	b9 c2       	rjmp	.+1394   	; 0x5d0 <__bad_interrupt>
      5e:	00 00       	nop
      60:	b7 c2       	rjmp	.+1390   	; 0x5d0 <__bad_interrupt>
      62:	00 00       	nop
      64:	b5 c2       	rjmp	.+1386   	; 0x5d0 <__bad_interrupt>
      66:	00 00       	nop
      68:	b3 c2       	rjmp	.+1382   	; 0x5d0 <__bad_interrupt>
      6a:	00 00       	nop
      6c:	b1 c2       	rjmp	.+1378   	; 0x5d0 <__bad_interrupt>
      6e:	00 00       	nop
      70:	af c2       	rjmp	.+1374   	; 0x5d0 <__bad_interrupt>
      72:	00 00       	nop
      74:	0c 94 10 0b 	jmp	0x1620	; 0x1620 <__vector_29>
      78:	ab c2       	rjmp	.+1366   	; 0x5d0 <__bad_interrupt>
      7a:	00 00       	nop
      7c:	a9 c2       	rjmp	.+1362   	; 0x5d0 <__bad_interrupt>
      7e:	00 00       	nop
      80:	a7 c2       	rjmp	.+1358   	; 0x5d0 <__bad_interrupt>
      82:	00 00       	nop
      84:	a5 c2       	rjmp	.+1354   	; 0x5d0 <__bad_interrupt>
      86:	00 00       	nop
      88:	a3 c2       	rjmp	.+1350   	; 0x5d0 <__bad_interrupt>
      8a:	00 00       	nop
      8c:	a1 c2       	rjmp	.+1346   	; 0x5d0 <__bad_interrupt>
      8e:	00 00       	nop
      90:	9f c2       	rjmp	.+1342   	; 0x5d0 <__bad_interrupt>
      92:	00 00       	nop
      94:	9d c2       	rjmp	.+1338   	; 0x5d0 <__bad_interrupt>
	...

00000098 <__trampolines_end>:
      98:	00 00       	nop
      9a:	00 00       	nop
      9c:	00 3e       	cpi	r16, 0xE0	; 224
      9e:	5b 4f       	sbci	r21, 0xFB	; 251
      a0:	5b 3e       	cpi	r21, 0xEB	; 235
      a2:	3e 6b       	ori	r19, 0xBE	; 190
      a4:	4f 6b       	ori	r20, 0xBF	; 191
      a6:	3e 1c       	adc	r3, r14
      a8:	3e 7c       	andi	r19, 0xCE	; 206
      aa:	3e 1c       	adc	r3, r14
      ac:	18 3c       	cpi	r17, 0xC8	; 200
      ae:	7e 3c       	cpi	r23, 0xCE	; 206
      b0:	18 1c       	adc	r1, r8
      b2:	57 7d       	andi	r21, 0xD7	; 215
      b4:	57 1c       	adc	r5, r7
      b6:	1c 5e       	subi	r17, 0xEC	; 236
      b8:	7f 5e       	subi	r23, 0xEF	; 239
      ba:	1c 00       	.word	0x001c	; ????
      bc:	18 3c       	cpi	r17, 0xC8	; 200
      be:	18 00       	.word	0x0018	; ????
      c0:	ff e7       	ldi	r31, 0x7F	; 127
      c2:	c3 e7       	ldi	r28, 0x73	; 115
      c4:	ff 00       	.word	0x00ff	; ????
      c6:	18 24       	eor	r1, r8
      c8:	18 00       	.word	0x0018	; ????
      ca:	ff e7       	ldi	r31, 0x7F	; 127
      cc:	db e7       	ldi	r29, 0x7B	; 123
      ce:	ff 30       	cpi	r31, 0x0F	; 15
      d0:	48 3a       	cpi	r20, 0xA8	; 168
      d2:	06 0e       	add	r0, r22
      d4:	26 29       	or	r18, r6
      d6:	79 29       	or	r23, r9
      d8:	26 40       	sbci	r18, 0x06	; 6
      da:	7f 05       	cpc	r23, r15
      dc:	05 07       	cpc	r16, r21
      de:	40 7f       	andi	r20, 0xF0	; 240
      e0:	05 25       	eor	r16, r5
      e2:	3f 5a       	subi	r19, 0xAF	; 175
      e4:	3c e7       	ldi	r19, 0x7C	; 124
      e6:	3c 5a       	subi	r19, 0xAC	; 172
      e8:	7f 3e       	cpi	r23, 0xEF	; 239
      ea:	1c 1c       	adc	r1, r12
      ec:	08 08       	sbc	r0, r8
      ee:	1c 1c       	adc	r1, r12
      f0:	3e 7f       	andi	r19, 0xFE	; 254
      f2:	14 22       	and	r1, r20
      f4:	7f 22       	and	r7, r31
      f6:	14 5f       	subi	r17, 0xF4	; 244
      f8:	5f 00       	.word	0x005f	; ????
      fa:	5f 5f       	subi	r21, 0xFF	; 255
      fc:	06 09       	sbc	r16, r6
      fe:	7f 01       	movw	r14, r30
     100:	7f 00       	.word	0x007f	; ????
     102:	66 89       	ldd	r22, Z+22	; 0x16
     104:	95 6a       	ori	r25, 0xA5	; 165
     106:	60 60       	ori	r22, 0x00	; 0
     108:	60 60       	ori	r22, 0x00	; 0
     10a:	60 94       	com	r6
     10c:	a2 ff       	sbrs	r26, 2
     10e:	a2 94       	swap	r10
     110:	08 04       	cpc	r0, r8
     112:	7e 04       	cpc	r7, r14
     114:	08 10       	cpse	r0, r8
     116:	20 7e       	andi	r18, 0xE0	; 224
     118:	20 10       	cpse	r2, r0
     11a:	08 08       	sbc	r0, r8
     11c:	2a 1c       	adc	r2, r10
     11e:	08 08       	sbc	r0, r8
     120:	1c 2a       	or	r1, r28
     122:	08 08       	sbc	r0, r8
     124:	1e 10       	cpse	r1, r14
     126:	10 10       	cpse	r1, r0
     128:	10 0c       	add	r1, r0
     12a:	1e 0c       	add	r1, r14
     12c:	1e 0c       	add	r1, r14
     12e:	30 38       	cpi	r19, 0x80	; 128
     130:	3e 38       	cpi	r19, 0x8E	; 142
     132:	30 06       	cpc	r3, r16
     134:	0e 3e       	cpi	r16, 0xEE	; 238
     136:	0e 06       	cpc	r0, r30
     138:	00 00       	nop
     13a:	00 00       	nop
     13c:	00 00       	nop
     13e:	00 5f       	subi	r16, 0xF0	; 240
     140:	00 00       	nop
     142:	00 07       	cpc	r16, r16
     144:	00 07       	cpc	r16, r16
     146:	00 14       	cp	r0, r0
     148:	7f 14       	cp	r7, r15
     14a:	7f 14       	cp	r7, r15
     14c:	24 2a       	or	r2, r20
     14e:	7f 2a       	or	r7, r31
     150:	12 23       	and	r17, r18
     152:	13 08       	sbc	r1, r3
     154:	64 62       	ori	r22, 0x24	; 36
     156:	36 49       	sbci	r19, 0x96	; 150
     158:	56 20       	and	r5, r6
     15a:	50 00       	.word	0x0050	; ????
     15c:	08 07       	cpc	r16, r24
     15e:	03 00       	.word	0x0003	; ????
     160:	00 1c       	adc	r0, r0
     162:	22 41       	sbci	r18, 0x12	; 18
     164:	00 00       	nop
     166:	41 22       	and	r4, r17
     168:	1c 00       	.word	0x001c	; ????
     16a:	2a 1c       	adc	r2, r10
     16c:	7f 1c       	adc	r7, r15
     16e:	2a 08       	sbc	r2, r10
     170:	08 3e       	cpi	r16, 0xE8	; 232
     172:	08 08       	sbc	r0, r8
     174:	00 80       	ld	r0, Z
     176:	70 30       	cpi	r23, 0x00	; 0
     178:	00 08       	sbc	r0, r0
     17a:	08 08       	sbc	r0, r8
     17c:	08 08       	sbc	r0, r8
     17e:	00 00       	nop
     180:	60 60       	ori	r22, 0x00	; 0
     182:	00 20       	and	r0, r0
     184:	10 08       	sbc	r1, r0
     186:	04 02       	muls	r16, r20
     188:	3e 51       	subi	r19, 0x1E	; 30
     18a:	49 45       	sbci	r20, 0x59	; 89
     18c:	3e 00       	.word	0x003e	; ????
     18e:	42 7f       	andi	r20, 0xF2	; 242
     190:	40 00       	.word	0x0040	; ????
     192:	72 49       	sbci	r23, 0x92	; 146
     194:	49 49       	sbci	r20, 0x99	; 153
     196:	46 21       	and	r20, r6
     198:	41 49       	sbci	r20, 0x91	; 145
     19a:	4d 33       	cpi	r20, 0x3D	; 61
     19c:	18 14       	cp	r1, r8
     19e:	12 7f       	andi	r17, 0xF2	; 242
     1a0:	10 27       	eor	r17, r16
     1a2:	45 45       	sbci	r20, 0x55	; 85
     1a4:	45 39       	cpi	r20, 0x95	; 149
     1a6:	3c 4a       	sbci	r19, 0xAC	; 172
     1a8:	49 49       	sbci	r20, 0x99	; 153
     1aa:	31 41       	sbci	r19, 0x11	; 17
     1ac:	21 11       	cpse	r18, r1
     1ae:	09 07       	cpc	r16, r25
     1b0:	36 49       	sbci	r19, 0x96	; 150
     1b2:	49 49       	sbci	r20, 0x99	; 153
     1b4:	36 46       	sbci	r19, 0x66	; 102
     1b6:	49 49       	sbci	r20, 0x99	; 153
     1b8:	29 1e       	adc	r2, r25
     1ba:	00 00       	nop
     1bc:	14 00       	.word	0x0014	; ????
     1be:	00 00       	nop
     1c0:	40 34       	cpi	r20, 0x40	; 64
     1c2:	00 00       	nop
     1c4:	00 08       	sbc	r0, r0
     1c6:	14 22       	and	r1, r20
     1c8:	41 14       	cp	r4, r1
     1ca:	14 14       	cp	r1, r4
     1cc:	14 14       	cp	r1, r4
     1ce:	00 41       	sbci	r16, 0x10	; 16
     1d0:	22 14       	cp	r2, r2
     1d2:	08 02       	muls	r16, r24
     1d4:	01 59       	subi	r16, 0x91	; 145
     1d6:	09 06       	cpc	r0, r25
     1d8:	3e 41       	sbci	r19, 0x1E	; 30
     1da:	5d 59       	subi	r21, 0x9D	; 157
     1dc:	4e 7c       	andi	r20, 0xCE	; 206
     1de:	12 11       	cpse	r17, r2
     1e0:	12 7c       	andi	r17, 0xC2	; 194
     1e2:	7f 49       	sbci	r23, 0x9F	; 159
     1e4:	49 49       	sbci	r20, 0x99	; 153
     1e6:	36 3e       	cpi	r19, 0xE6	; 230
     1e8:	41 41       	sbci	r20, 0x11	; 17
     1ea:	41 22       	and	r4, r17
     1ec:	7f 41       	sbci	r23, 0x1F	; 31
     1ee:	41 41       	sbci	r20, 0x11	; 17
     1f0:	3e 7f       	andi	r19, 0xFE	; 254
     1f2:	49 49       	sbci	r20, 0x99	; 153
     1f4:	49 41       	sbci	r20, 0x19	; 25
     1f6:	7f 09       	sbc	r23, r15
     1f8:	09 09       	sbc	r16, r9
     1fa:	01 3e       	cpi	r16, 0xE1	; 225
     1fc:	41 41       	sbci	r20, 0x11	; 17
     1fe:	51 73       	andi	r21, 0x31	; 49
     200:	7f 08       	sbc	r7, r15
     202:	08 08       	sbc	r0, r8
     204:	7f 00       	.word	0x007f	; ????
     206:	41 7f       	andi	r20, 0xF1	; 241
     208:	41 00       	.word	0x0041	; ????
     20a:	20 40       	sbci	r18, 0x00	; 0
     20c:	41 3f       	cpi	r20, 0xF1	; 241
     20e:	01 7f       	andi	r16, 0xF1	; 241
     210:	08 14       	cp	r0, r8
     212:	22 41       	sbci	r18, 0x12	; 18
     214:	7f 40       	sbci	r23, 0x0F	; 15
     216:	40 40       	sbci	r20, 0x00	; 0
     218:	40 7f       	andi	r20, 0xF0	; 240
     21a:	02 1c       	adc	r0, r2
     21c:	02 7f       	andi	r16, 0xF2	; 242
     21e:	7f 04       	cpc	r7, r15
     220:	08 10       	cpse	r0, r8
     222:	7f 3e       	cpi	r23, 0xEF	; 239
     224:	41 41       	sbci	r20, 0x11	; 17
     226:	41 3e       	cpi	r20, 0xE1	; 225
     228:	7f 09       	sbc	r23, r15
     22a:	09 09       	sbc	r16, r9
     22c:	06 3e       	cpi	r16, 0xE6	; 230
     22e:	41 51       	subi	r20, 0x11	; 17
     230:	21 5e       	subi	r18, 0xE1	; 225
     232:	7f 09       	sbc	r23, r15
     234:	19 29       	or	r17, r9
     236:	46 26       	eor	r4, r22
     238:	49 49       	sbci	r20, 0x99	; 153
     23a:	49 32       	cpi	r20, 0x29	; 41
     23c:	03 01       	movw	r0, r6
     23e:	7f 01       	movw	r14, r30
     240:	03 3f       	cpi	r16, 0xF3	; 243
     242:	40 40       	sbci	r20, 0x00	; 0
     244:	40 3f       	cpi	r20, 0xF0	; 240
     246:	1f 20       	and	r1, r15
     248:	40 20       	and	r4, r0
     24a:	1f 3f       	cpi	r17, 0xFF	; 255
     24c:	40 38       	cpi	r20, 0x80	; 128
     24e:	40 3f       	cpi	r20, 0xF0	; 240
     250:	63 14       	cp	r6, r3
     252:	08 14       	cp	r0, r8
     254:	63 03       	mulsu	r22, r19
     256:	04 78       	andi	r16, 0x84	; 132
     258:	04 03       	mulsu	r16, r20
     25a:	61 59       	subi	r22, 0x91	; 145
     25c:	49 4d       	sbci	r20, 0xD9	; 217
     25e:	43 00       	.word	0x0043	; ????
     260:	7f 41       	sbci	r23, 0x1F	; 31
     262:	41 41       	sbci	r20, 0x11	; 17
     264:	02 04       	cpc	r0, r2
     266:	08 10       	cpse	r0, r8
     268:	20 00       	.word	0x0020	; ????
     26a:	41 41       	sbci	r20, 0x11	; 17
     26c:	41 7f       	andi	r20, 0xF1	; 241
     26e:	04 02       	muls	r16, r20
     270:	01 02       	muls	r16, r17
     272:	04 40       	sbci	r16, 0x04	; 4
     274:	40 40       	sbci	r20, 0x00	; 0
     276:	40 40       	sbci	r20, 0x00	; 0
     278:	00 03       	mulsu	r16, r16
     27a:	07 08       	sbc	r0, r7
     27c:	00 20       	and	r0, r0
     27e:	54 54       	subi	r21, 0x44	; 68
     280:	78 40       	sbci	r23, 0x08	; 8
     282:	7f 28       	or	r7, r15
     284:	44 44       	sbci	r20, 0x44	; 68
     286:	38 38       	cpi	r19, 0x88	; 136
     288:	44 44       	sbci	r20, 0x44	; 68
     28a:	44 28       	or	r4, r4
     28c:	38 44       	sbci	r19, 0x48	; 72
     28e:	44 28       	or	r4, r4
     290:	7f 38       	cpi	r23, 0x8F	; 143
     292:	54 54       	subi	r21, 0x44	; 68
     294:	54 18       	sub	r5, r4
     296:	00 08       	sbc	r0, r0
     298:	7e 09       	sbc	r23, r14
     29a:	02 18       	sub	r0, r2
     29c:	a4 a4       	ldd	r10, Z+44	; 0x2c
     29e:	9c 78       	andi	r25, 0x8C	; 140
     2a0:	7f 08       	sbc	r7, r15
     2a2:	04 04       	cpc	r0, r4
     2a4:	78 00       	.word	0x0078	; ????
     2a6:	44 7d       	andi	r20, 0xD4	; 212
     2a8:	40 00       	.word	0x0040	; ????
     2aa:	20 40       	sbci	r18, 0x00	; 0
     2ac:	40 3d       	cpi	r20, 0xD0	; 208
     2ae:	00 7f       	andi	r16, 0xF0	; 240
     2b0:	10 28       	or	r1, r0
     2b2:	44 00       	.word	0x0044	; ????
     2b4:	00 41       	sbci	r16, 0x10	; 16
     2b6:	7f 40       	sbci	r23, 0x0F	; 15
     2b8:	00 7c       	andi	r16, 0xC0	; 192
     2ba:	04 78       	andi	r16, 0x84	; 132
     2bc:	04 78       	andi	r16, 0x84	; 132
     2be:	7c 08       	sbc	r7, r12
     2c0:	04 04       	cpc	r0, r4
     2c2:	78 38       	cpi	r23, 0x88	; 136
     2c4:	44 44       	sbci	r20, 0x44	; 68
     2c6:	44 38       	cpi	r20, 0x84	; 132
     2c8:	fc 18       	sub	r15, r12
     2ca:	24 24       	eor	r2, r4
     2cc:	18 18       	sub	r1, r8
     2ce:	24 24       	eor	r2, r4
     2d0:	18 fc       	.word	0xfc18	; ????
     2d2:	7c 08       	sbc	r7, r12
     2d4:	04 04       	cpc	r0, r4
     2d6:	08 48       	sbci	r16, 0x88	; 136
     2d8:	54 54       	subi	r21, 0x44	; 68
     2da:	54 24       	eor	r5, r4
     2dc:	04 04       	cpc	r0, r4
     2de:	3f 44       	sbci	r19, 0x4F	; 79
     2e0:	24 3c       	cpi	r18, 0xC4	; 196
     2e2:	40 40       	sbci	r20, 0x00	; 0
     2e4:	20 7c       	andi	r18, 0xC0	; 192
     2e6:	1c 20       	and	r1, r12
     2e8:	40 20       	and	r4, r0
     2ea:	1c 3c       	cpi	r17, 0xCC	; 204
     2ec:	40 30       	cpi	r20, 0x00	; 0
     2ee:	40 3c       	cpi	r20, 0xC0	; 192
     2f0:	44 28       	or	r4, r4
     2f2:	10 28       	or	r1, r0
     2f4:	44 4c       	sbci	r20, 0xC4	; 196
     2f6:	90 90 90 7c 	lds	r9, 0x7C90	; 0x807c90 <__bss_end+0x7564>
     2fa:	44 64       	ori	r20, 0x44	; 68
     2fc:	54 4c       	sbci	r21, 0xC4	; 196
     2fe:	44 00       	.word	0x0044	; ????
     300:	08 36       	cpi	r16, 0x68	; 104
     302:	41 00       	.word	0x0041	; ????
     304:	00 00       	nop
     306:	77 00       	.word	0x0077	; ????
     308:	00 00       	nop
     30a:	41 36       	cpi	r20, 0x61	; 97
     30c:	08 00       	.word	0x0008	; ????
     30e:	02 01       	movw	r0, r4
     310:	02 04       	cpc	r0, r2
     312:	02 3c       	cpi	r16, 0xC2	; 194
     314:	26 23       	and	r18, r22
     316:	26 3c       	cpi	r18, 0xC6	; 198
     318:	1e a1       	ldd	r17, Y+38	; 0x26
     31a:	a1 61       	ori	r26, 0x11	; 17
     31c:	12 3a       	cpi	r17, 0xA2	; 162
     31e:	40 40       	sbci	r20, 0x00	; 0
     320:	20 7a       	andi	r18, 0xA0	; 160
     322:	38 54       	subi	r19, 0x48	; 72
     324:	54 55       	subi	r21, 0x54	; 84
     326:	59 21       	and	r21, r9
     328:	55 55       	subi	r21, 0x55	; 85
     32a:	79 41       	sbci	r23, 0x19	; 25
     32c:	22 54       	subi	r18, 0x42	; 66
     32e:	54 78       	andi	r21, 0x84	; 132
     330:	42 21       	and	r20, r2
     332:	55 54       	subi	r21, 0x45	; 69
     334:	78 40       	sbci	r23, 0x08	; 8
     336:	20 54       	subi	r18, 0x40	; 64
     338:	55 79       	andi	r21, 0x95	; 149
     33a:	40 0c       	add	r4, r0
     33c:	1e 52       	subi	r17, 0x2E	; 46
     33e:	72 12       	cpse	r7, r18
     340:	39 55       	subi	r19, 0x59	; 89
     342:	55 55       	subi	r21, 0x55	; 85
     344:	59 39       	cpi	r21, 0x99	; 153
     346:	54 54       	subi	r21, 0x44	; 68
     348:	54 59       	subi	r21, 0x94	; 148
     34a:	39 55       	subi	r19, 0x59	; 89
     34c:	54 54       	subi	r21, 0x44	; 68
     34e:	58 00       	.word	0x0058	; ????
     350:	00 45       	sbci	r16, 0x50	; 80
     352:	7c 41       	sbci	r23, 0x1C	; 28
     354:	00 02       	muls	r16, r16
     356:	45 7d       	andi	r20, 0xD5	; 213
     358:	42 00       	.word	0x0042	; ????
     35a:	01 45       	sbci	r16, 0x51	; 81
     35c:	7c 40       	sbci	r23, 0x0C	; 12
     35e:	7d 12       	cpse	r7, r29
     360:	11 12       	cpse	r1, r17
     362:	7d f0       	brhs	.+30     	; 0x382 <__trampolines_end+0x2ea>
     364:	28 25       	eor	r18, r8
     366:	28 f0       	brcs	.+10     	; 0x372 <__trampolines_end+0x2da>
     368:	7c 54       	subi	r23, 0x4C	; 76
     36a:	55 45       	sbci	r21, 0x55	; 85
     36c:	00 20       	and	r0, r0
     36e:	54 54       	subi	r21, 0x44	; 68
     370:	7c 54       	subi	r23, 0x4C	; 76
     372:	7c 0a       	sbc	r7, r28
     374:	09 7f       	andi	r16, 0xF9	; 249
     376:	49 32       	cpi	r20, 0x29	; 41
     378:	49 49       	sbci	r20, 0x99	; 153
     37a:	49 32       	cpi	r20, 0x29	; 41
     37c:	3a 44       	sbci	r19, 0x4A	; 74
     37e:	44 44       	sbci	r20, 0x44	; 68
     380:	3a 32       	cpi	r19, 0x2A	; 42
     382:	4a 48       	sbci	r20, 0x8A	; 138
     384:	48 30       	cpi	r20, 0x08	; 8
     386:	3a 41       	sbci	r19, 0x1A	; 26
     388:	41 21       	and	r20, r1
     38a:	7a 3a       	cpi	r23, 0xAA	; 170
     38c:	42 40       	sbci	r20, 0x02	; 2
     38e:	20 78       	andi	r18, 0x80	; 128
     390:	00 9d       	mul	r16, r0
     392:	a0 a0       	ldd	r10, Z+32	; 0x20
     394:	7d 3d       	cpi	r23, 0xDD	; 221
     396:	42 42       	sbci	r20, 0x22	; 34
     398:	42 3d       	cpi	r20, 0xD2	; 210
     39a:	3d 40       	sbci	r19, 0x0D	; 13
     39c:	40 40       	sbci	r20, 0x00	; 0
     39e:	3d 3c       	cpi	r19, 0xCD	; 205
     3a0:	24 ff       	sbrs	r18, 4
     3a2:	24 24       	eor	r2, r4
     3a4:	48 7e       	andi	r20, 0xE8	; 232
     3a6:	49 43       	sbci	r20, 0x39	; 57
     3a8:	66 2b       	or	r22, r22
     3aa:	2f fc       	.word	0xfc2f	; ????
     3ac:	2f 2b       	or	r18, r31
     3ae:	ff 09       	sbc	r31, r15
     3b0:	29 f6       	brne	.-118    	; 0x33c <__trampolines_end+0x2a4>
     3b2:	20 c0       	rjmp	.+64     	; 0x3f4 <__trampolines_end+0x35c>
     3b4:	88 7e       	andi	r24, 0xE8	; 232
     3b6:	09 03       	fmul	r16, r17
     3b8:	20 54       	subi	r18, 0x40	; 64
     3ba:	54 79       	andi	r21, 0x94	; 148
     3bc:	41 00       	.word	0x0041	; ????
     3be:	00 44       	sbci	r16, 0x40	; 64
     3c0:	7d 41       	sbci	r23, 0x1D	; 29
     3c2:	30 48       	sbci	r19, 0x80	; 128
     3c4:	48 4a       	sbci	r20, 0xA8	; 168
     3c6:	32 38       	cpi	r19, 0x82	; 130
     3c8:	40 40       	sbci	r20, 0x00	; 0
     3ca:	22 7a       	andi	r18, 0xA2	; 162
     3cc:	00 7a       	andi	r16, 0xA0	; 160
     3ce:	0a 0a       	sbc	r0, r26
     3d0:	72 7d       	andi	r23, 0xD2	; 210
     3d2:	0d 19       	sub	r16, r13
     3d4:	31 7d       	andi	r19, 0xD1	; 209
     3d6:	26 29       	or	r18, r6
     3d8:	29 2f       	mov	r18, r25
     3da:	28 26       	eor	r2, r24
     3dc:	29 29       	or	r18, r9
     3de:	29 26       	eor	r2, r25
     3e0:	30 48       	sbci	r19, 0x80	; 128
     3e2:	4d 40       	sbci	r20, 0x0D	; 13
     3e4:	20 38       	cpi	r18, 0x80	; 128
     3e6:	08 08       	sbc	r0, r8
     3e8:	08 08       	sbc	r0, r8
     3ea:	08 08       	sbc	r0, r8
     3ec:	08 08       	sbc	r0, r8
     3ee:	38 2f       	mov	r19, r24
     3f0:	10 c8       	rjmp	.-4064   	; 0xfffff412 <__eeprom_end+0xff7ef412>
     3f2:	ac ba       	out	0x1c, r10	; 28
     3f4:	2f 10       	cpse	r2, r15
     3f6:	28 34       	cpi	r18, 0x48	; 72
     3f8:	fa 00       	.word	0x00fa	; ????
     3fa:	00 7b       	andi	r16, 0xB0	; 176
     3fc:	00 00       	nop
     3fe:	08 14       	cp	r0, r8
     400:	2a 14       	cp	r2, r10
     402:	22 22       	and	r2, r18
     404:	14 2a       	or	r1, r20
     406:	14 08       	sbc	r1, r4
     408:	aa 00       	.word	0x00aa	; ????
     40a:	55 00       	.word	0x0055	; ????
     40c:	aa aa       	std	Y+50, r10	; 0x32
     40e:	55 aa       	std	Z+53, r5	; 0x35
     410:	55 aa       	std	Z+53, r5	; 0x35
     412:	00 00       	nop
     414:	00 ff       	sbrs	r16, 0
     416:	00 10       	cpse	r0, r0
     418:	10 10       	cpse	r1, r0
     41a:	ff 00       	.word	0x00ff	; ????
     41c:	14 14       	cp	r1, r4
     41e:	14 ff       	sbrs	r17, 4
     420:	00 10       	cpse	r0, r0
     422:	10 ff       	sbrs	r17, 0
     424:	00 ff       	sbrs	r16, 0
     426:	10 10       	cpse	r1, r0
     428:	f0 10       	cpse	r15, r0
     42a:	f0 14       	cp	r15, r0
     42c:	14 14       	cp	r1, r4
     42e:	fc 00       	.word	0x00fc	; ????
     430:	14 14       	cp	r1, r4
     432:	f7 00       	.word	0x00f7	; ????
     434:	ff 00       	.word	0x00ff	; ????
     436:	00 ff       	sbrs	r16, 0
     438:	00 ff       	sbrs	r16, 0
     43a:	14 14       	cp	r1, r4
     43c:	f4 04       	cpc	r15, r4
     43e:	fc 14       	cp	r15, r12
     440:	14 17       	cp	r17, r20
     442:	10 1f       	adc	r17, r16
     444:	10 10       	cpse	r1, r0
     446:	1f 10       	cpse	r1, r15
     448:	1f 14       	cp	r1, r15
     44a:	14 14       	cp	r1, r4
     44c:	1f 00       	.word	0x001f	; ????
     44e:	10 10       	cpse	r1, r0
     450:	10 f0       	brcs	.+4      	; 0x456 <__LOCK_REGION_LENGTH__+0x56>
     452:	00 00       	nop
     454:	00 00       	nop
     456:	1f 10       	cpse	r1, r15
     458:	10 10       	cpse	r1, r0
     45a:	10 1f       	adc	r17, r16
     45c:	10 10       	cpse	r1, r0
     45e:	10 10       	cpse	r1, r0
     460:	f0 10       	cpse	r15, r0
     462:	00 00       	nop
     464:	00 ff       	sbrs	r16, 0
     466:	10 10       	cpse	r1, r0
     468:	10 10       	cpse	r1, r0
     46a:	10 10       	cpse	r1, r0
     46c:	10 10       	cpse	r1, r0
     46e:	10 ff       	sbrs	r17, 0
     470:	10 00       	.word	0x0010	; ????
     472:	00 00       	nop
     474:	ff 14       	cp	r15, r15
     476:	00 00       	nop
     478:	ff 00       	.word	0x00ff	; ????
     47a:	ff 00       	.word	0x00ff	; ????
     47c:	00 1f       	adc	r16, r16
     47e:	10 17       	cp	r17, r16
     480:	00 00       	nop
     482:	fc 04       	cpc	r15, r12
     484:	f4 14       	cp	r15, r4
     486:	14 17       	cp	r17, r20
     488:	10 17       	cp	r17, r16
     48a:	14 14       	cp	r1, r4
     48c:	f4 04       	cpc	r15, r4
     48e:	f4 00       	.word	0x00f4	; ????
     490:	00 ff       	sbrs	r16, 0
     492:	00 f7       	brcc	.-64     	; 0x454 <__LOCK_REGION_LENGTH__+0x54>
     494:	14 14       	cp	r1, r4
     496:	14 14       	cp	r1, r4
     498:	14 14       	cp	r1, r4
     49a:	14 f7       	brge	.-60     	; 0x460 <__LOCK_REGION_LENGTH__+0x60>
     49c:	00 f7       	brcc	.-64     	; 0x45e <__LOCK_REGION_LENGTH__+0x5e>
     49e:	14 14       	cp	r1, r4
     4a0:	14 17       	cp	r17, r20
     4a2:	14 10       	cpse	r1, r4
     4a4:	10 1f       	adc	r17, r16
     4a6:	10 1f       	adc	r17, r16
     4a8:	14 14       	cp	r1, r4
     4aa:	14 f4       	brge	.+4      	; 0x4b0 <__LOCK_REGION_LENGTH__+0xb0>
     4ac:	14 10       	cpse	r1, r4
     4ae:	10 f0       	brcs	.+4      	; 0x4b4 <__LOCK_REGION_LENGTH__+0xb4>
     4b0:	10 f0       	brcs	.+4      	; 0x4b6 <__LOCK_REGION_LENGTH__+0xb6>
     4b2:	00 00       	nop
     4b4:	1f 10       	cpse	r1, r15
     4b6:	1f 00       	.word	0x001f	; ????
     4b8:	00 00       	nop
     4ba:	1f 14       	cp	r1, r15
     4bc:	00 00       	nop
     4be:	00 fc       	sbrc	r0, 0
     4c0:	14 00       	.word	0x0014	; ????
     4c2:	00 f0       	brcs	.+0      	; 0x4c4 <__LOCK_REGION_LENGTH__+0xc4>
     4c4:	10 f0       	brcs	.+4      	; 0x4ca <__LOCK_REGION_LENGTH__+0xca>
     4c6:	10 10       	cpse	r1, r0
     4c8:	ff 10       	cpse	r15, r15
     4ca:	ff 14       	cp	r15, r15
     4cc:	14 14       	cp	r1, r4
     4ce:	ff 14       	cp	r15, r15
     4d0:	10 10       	cpse	r1, r0
     4d2:	10 1f       	adc	r17, r16
     4d4:	00 00       	nop
     4d6:	00 00       	nop
     4d8:	f0 10       	cpse	r15, r0
     4da:	ff ff       	.word	0xffff	; ????
     4dc:	ff ff       	.word	0xffff	; ????
     4de:	ff f0       	brie	.+62     	; 0x51e <__LOCK_REGION_LENGTH__+0x11e>
     4e0:	f0 f0       	brcs	.+60     	; 0x51e <__LOCK_REGION_LENGTH__+0x11e>
     4e2:	f0 f0       	brcs	.+60     	; 0x520 <__LOCK_REGION_LENGTH__+0x120>
     4e4:	ff ff       	.word	0xffff	; ????
     4e6:	ff 00       	.word	0x00ff	; ????
     4e8:	00 00       	nop
     4ea:	00 00       	nop
     4ec:	ff ff       	.word	0xffff	; ????
     4ee:	0f 0f       	add	r16, r31
     4f0:	0f 0f       	add	r16, r31
     4f2:	0f 38       	cpi	r16, 0x8F	; 143
     4f4:	44 44       	sbci	r20, 0x44	; 68
     4f6:	38 44       	sbci	r19, 0x48	; 72
     4f8:	fc 4a       	sbci	r31, 0xAC	; 172
     4fa:	4a 4a       	sbci	r20, 0xAA	; 170
     4fc:	34 7e       	andi	r19, 0xE4	; 228
     4fe:	02 02       	muls	r16, r18
     500:	06 06       	cpc	r0, r22
     502:	02 7e       	andi	r16, 0xE2	; 226
     504:	02 7e       	andi	r16, 0xE2	; 226
     506:	02 63       	ori	r16, 0x32	; 50
     508:	55 49       	sbci	r21, 0x95	; 149
     50a:	41 63       	ori	r20, 0x31	; 49
     50c:	38 44       	sbci	r19, 0x48	; 72
     50e:	44 3c       	cpi	r20, 0xC4	; 196
     510:	04 40       	sbci	r16, 0x04	; 4
     512:	7e 20       	and	r7, r14
     514:	1e 20       	and	r1, r14
     516:	06 02       	muls	r16, r22
     518:	7e 02       	muls	r23, r30
     51a:	02 99       	sbic	0x00, 2	; 0
     51c:	a5 e7       	ldi	r26, 0x75	; 117
     51e:	a5 99       	sbic	0x14, 5	; 20
     520:	1c 2a       	or	r1, r28
     522:	49 2a       	or	r4, r25
     524:	1c 4c       	sbci	r17, 0xCC	; 204
     526:	72 01       	movw	r14, r4
     528:	72 4c       	sbci	r23, 0xC2	; 194
     52a:	30 4a       	sbci	r19, 0xA0	; 160
     52c:	4d 4d       	sbci	r20, 0xDD	; 221
     52e:	30 30       	cpi	r19, 0x00	; 0
     530:	48 78       	andi	r20, 0x88	; 136
     532:	48 30       	cpi	r20, 0x08	; 8
     534:	bc 62       	ori	r27, 0x2C	; 44
     536:	5a 46       	sbci	r21, 0x6A	; 106
     538:	3d 3e       	cpi	r19, 0xED	; 237
     53a:	49 49       	sbci	r20, 0x99	; 153
     53c:	49 00       	.word	0x0049	; ????
     53e:	7e 01       	movw	r14, r28
     540:	01 01       	movw	r0, r2
     542:	7e 2a       	or	r7, r30
     544:	2a 2a       	or	r2, r26
     546:	2a 2a       	or	r2, r26
     548:	44 44       	sbci	r20, 0x44	; 68
     54a:	5f 44       	sbci	r21, 0x4F	; 79
     54c:	44 40       	sbci	r20, 0x04	; 4
     54e:	51 4a       	sbci	r21, 0xA1	; 161
     550:	44 40       	sbci	r20, 0x04	; 4
     552:	40 44       	sbci	r20, 0x40	; 64
     554:	4a 51       	subi	r20, 0x1A	; 26
     556:	40 00       	.word	0x0040	; ????
     558:	00 ff       	sbrs	r16, 0
     55a:	01 03       	mulsu	r16, r17
     55c:	e0 80       	ld	r14, Z
     55e:	ff 00       	.word	0x00ff	; ????
     560:	00 08       	sbc	r0, r0
     562:	08 6b       	ori	r16, 0xB8	; 184
     564:	6b 08       	sbc	r6, r11
     566:	36 12       	cpse	r3, r22
     568:	36 24       	eor	r3, r6
     56a:	36 06       	cpc	r3, r22
     56c:	0f 09       	sbc	r16, r15
     56e:	0f 06       	cpc	r0, r31
     570:	00 00       	nop
     572:	18 18       	sub	r1, r8
     574:	00 00       	nop
     576:	00 10       	cpse	r0, r0
     578:	10 00       	.word	0x0010	; ????
     57a:	30 40       	sbci	r19, 0x00	; 0
     57c:	ff 01       	movw	r30, r30
     57e:	01 00       	.word	0x0001	; ????
     580:	1f 01       	movw	r2, r30
     582:	01 1e       	adc	r0, r17
     584:	00 19       	sub	r16, r0
     586:	1d 17       	cp	r17, r29
     588:	12 00       	.word	0x0012	; ????
     58a:	3c 3c       	cpi	r19, 0xCC	; 204
     58c:	3c 3c       	cpi	r19, 0xCC	; 204
     58e:	00 00       	nop
     590:	00 00       	nop
	...

00000594 <__ctors_end>:
     594:	11 24       	eor	r1, r1
     596:	1f be       	out	0x3f, r1	; 63
     598:	cf ef       	ldi	r28, 0xFF	; 255
     59a:	d0 e2       	ldi	r29, 0x20	; 32
     59c:	de bf       	out	0x3e, r29	; 62
     59e:	cd bf       	out	0x3d, r28	; 61

000005a0 <__do_copy_data>:
     5a0:	11 e0       	ldi	r17, 0x01	; 1
     5a2:	a0 e0       	ldi	r26, 0x00	; 0
     5a4:	b1 e0       	ldi	r27, 0x01	; 1
     5a6:	e0 eb       	ldi	r30, 0xB0	; 176
     5a8:	f0 e2       	ldi	r31, 0x20	; 32
     5aa:	00 e0       	ldi	r16, 0x00	; 0
     5ac:	0b bf       	out	0x3b, r16	; 59
     5ae:	02 c0       	rjmp	.+4      	; 0x5b4 <__do_copy_data+0x14>
     5b0:	07 90       	elpm	r0, Z+
     5b2:	0d 92       	st	X+, r0
     5b4:	a2 38       	cpi	r26, 0x82	; 130
     5b6:	b1 07       	cpc	r27, r17
     5b8:	d9 f7       	brne	.-10     	; 0x5b0 <__do_copy_data+0x10>

000005ba <__do_clear_bss>:
     5ba:	27 e0       	ldi	r18, 0x07	; 7
     5bc:	a2 e8       	ldi	r26, 0x82	; 130
     5be:	b1 e0       	ldi	r27, 0x01	; 1
     5c0:	01 c0       	rjmp	.+2      	; 0x5c4 <.do_clear_bss_start>

000005c2 <.do_clear_bss_loop>:
     5c2:	1d 92       	st	X+, r1

000005c4 <.do_clear_bss_start>:
     5c4:	ac 32       	cpi	r26, 0x2C	; 44
     5c6:	b2 07       	cpc	r27, r18
     5c8:	e1 f7       	brne	.-8      	; 0x5c2 <.do_clear_bss_loop>
     5ca:	d9 d4       	rcall	.+2482   	; 0xf7e <main>
     5cc:	0c 94 56 10 	jmp	0x20ac	; 0x20ac <_exit>

000005d0 <__bad_interrupt>:
     5d0:	17 cd       	rjmp	.-1490   	; 0x0 <__vectors>

000005d2 <drawPixel>:
	
	drawNumber(12,32, blk);
	drawNumber(40,32, wht);
	drawNumber(68,32, alm);
	drawNumber(96,32, stl);
}
     5d2:	88 23       	and	r24, r24
     5d4:	d4 f0       	brlt	.+52     	; 0x60a <drawPixel+0x38>
     5d6:	60 34       	cpi	r22, 0x40	; 64
     5d8:	c0 f4       	brcc	.+48     	; 0x60a <drawPixel+0x38>
     5da:	96 2f       	mov	r25, r22
     5dc:	96 95       	lsr	r25
     5de:	96 95       	lsr	r25
     5e0:	96 95       	lsr	r25
     5e2:	e8 2f       	mov	r30, r24
     5e4:	f0 e0       	ldi	r31, 0x00	; 0
     5e6:	80 e8       	ldi	r24, 0x80	; 128
     5e8:	98 9f       	mul	r25, r24
     5ea:	e0 0d       	add	r30, r0
     5ec:	f1 1d       	adc	r31, r1
     5ee:	11 24       	eor	r1, r1
     5f0:	ee 57       	subi	r30, 0x7E	; 126
     5f2:	fe 4f       	sbci	r31, 0xFE	; 254
     5f4:	67 70       	andi	r22, 0x07	; 7
     5f6:	81 e0       	ldi	r24, 0x01	; 1
     5f8:	90 e0       	ldi	r25, 0x00	; 0
     5fa:	02 c0       	rjmp	.+4      	; 0x600 <drawPixel+0x2e>
     5fc:	88 0f       	add	r24, r24
     5fe:	99 1f       	adc	r25, r25
     600:	6a 95       	dec	r22
     602:	e2 f7       	brpl	.-8      	; 0x5fc <drawPixel+0x2a>
     604:	90 81       	ld	r25, Z
     606:	89 2b       	or	r24, r25
     608:	80 83       	st	Z, r24
     60a:	08 95       	ret

0000060c <drawVLine>:
     60c:	1f 93       	push	r17
     60e:	cf 93       	push	r28
     610:	df 93       	push	r29
     612:	44 23       	and	r20, r20
     614:	51 f0       	breq	.+20     	; 0x62a <drawVLine+0x1e>
     616:	c6 2f       	mov	r28, r22
     618:	18 2f       	mov	r17, r24
     61a:	d4 2f       	mov	r29, r20
     61c:	d6 0f       	add	r29, r22
     61e:	6c 2f       	mov	r22, r28
     620:	81 2f       	mov	r24, r17
     622:	d7 df       	rcall	.-82     	; 0x5d2 <drawPixel>
     624:	cf 5f       	subi	r28, 0xFF	; 255
     626:	cd 13       	cpse	r28, r29
     628:	fa cf       	rjmp	.-12     	; 0x61e <drawVLine+0x12>
     62a:	df 91       	pop	r29
     62c:	cf 91       	pop	r28
     62e:	1f 91       	pop	r17
     630:	08 95       	ret

00000632 <drawHLine>:
     632:	0f 93       	push	r16
     634:	1f 93       	push	r17
     636:	cf 93       	push	r28
     638:	df 93       	push	r29
     63a:	44 23       	and	r20, r20
     63c:	79 f0       	breq	.+30     	; 0x65c <drawHLine+0x2a>
     63e:	16 2f       	mov	r17, r22
     640:	c8 2f       	mov	r28, r24
     642:	d4 2f       	mov	r29, r20
     644:	d8 0f       	add	r29, r24
     646:	01 e0       	ldi	r16, 0x01	; 1
     648:	06 0f       	add	r16, r22
     64a:	61 2f       	mov	r22, r17
     64c:	8c 2f       	mov	r24, r28
     64e:	c1 df       	rcall	.-126    	; 0x5d2 <drawPixel>
     650:	60 2f       	mov	r22, r16
     652:	8c 2f       	mov	r24, r28
     654:	be df       	rcall	.-132    	; 0x5d2 <drawPixel>
     656:	cf 5f       	subi	r28, 0xFF	; 255
     658:	cd 13       	cpse	r28, r29
     65a:	f7 cf       	rjmp	.-18     	; 0x64a <drawHLine+0x18>
     65c:	df 91       	pop	r29
     65e:	cf 91       	pop	r28
     660:	1f 91       	pop	r17
     662:	0f 91       	pop	r16
     664:	08 95       	ret

00000666 <drawRectangle>:
     666:	ef 92       	push	r14
     668:	ff 92       	push	r15
     66a:	0f 93       	push	r16
     66c:	1f 93       	push	r17
     66e:	cf 93       	push	r28
     670:	df 93       	push	r29
     672:	d8 2f       	mov	r29, r24
     674:	c6 2f       	mov	r28, r22
     676:	04 2f       	mov	r16, r20
     678:	e2 2e       	mov	r14, r18
     67a:	14 2f       	mov	r17, r20
     67c:	18 1b       	sub	r17, r24
     67e:	1f 5f       	subi	r17, 0xFF	; 255
     680:	f2 2e       	mov	r15, r18
     682:	f6 1a       	sub	r15, r22
     684:	41 2f       	mov	r20, r17
     686:	d5 df       	rcall	.-86     	; 0x632 <drawHLine>
     688:	41 2f       	mov	r20, r17
     68a:	6e 2d       	mov	r22, r14
     68c:	8d 2f       	mov	r24, r29
     68e:	d1 df       	rcall	.-94     	; 0x632 <drawHLine>
     690:	4f 2d       	mov	r20, r15
     692:	6c 2f       	mov	r22, r28
     694:	8d 2f       	mov	r24, r29
     696:	ba df       	rcall	.-140    	; 0x60c <drawVLine>
     698:	4f 2d       	mov	r20, r15
     69a:	6c 2f       	mov	r22, r28
     69c:	80 2f       	mov	r24, r16
     69e:	b6 df       	rcall	.-148    	; 0x60c <drawVLine>
     6a0:	df 91       	pop	r29
     6a2:	cf 91       	pop	r28
     6a4:	1f 91       	pop	r17
     6a6:	0f 91       	pop	r16
     6a8:	ff 90       	pop	r15
     6aa:	ef 90       	pop	r14
     6ac:	08 95       	ret

000006ae <drawRectangleFilled>:
     6ae:	9f 92       	push	r9
     6b0:	af 92       	push	r10
     6b2:	bf 92       	push	r11
     6b4:	cf 92       	push	r12
     6b6:	df 92       	push	r13
     6b8:	ef 92       	push	r14
     6ba:	ff 92       	push	r15
     6bc:	0f 93       	push	r16
     6be:	1f 93       	push	r17
     6c0:	cf 93       	push	r28
     6c2:	df 93       	push	r29
     6c4:	96 2e       	mov	r9, r22
     6c6:	01 11       	cpse	r16, r1
     6c8:	02 c0       	rjmp	.+4      	; 0x6ce <drawRectangleFilled+0x20>
     6ca:	cd df       	rcall	.-102    	; 0x666 <drawRectangle>
     6cc:	22 c0       	rjmp	.+68     	; 0x712 <drawRectangleFilled+0x64>
     6ce:	26 1b       	sub	r18, r22
     6d0:	4f 5f       	subi	r20, 0xFF	; 255
     6d2:	48 1b       	sub	r20, r24
     6d4:	c4 2e       	mov	r12, r20
     6d6:	d1 2c       	mov	r13, r1
     6d8:	1c 14       	cp	r1, r12
     6da:	1d 04       	cpc	r1, r13
     6dc:	8c f0       	brlt	.+34     	; 0x700 <drawRectangleFilled+0x52>
     6de:	19 c0       	rjmp	.+50     	; 0x712 <drawRectangleFilled+0x64>
     6e0:	61 2f       	mov	r22, r17
     6e2:	80 2f       	mov	r24, r16
     6e4:	76 df       	rcall	.-276    	; 0x5d2 <drawPixel>
     6e6:	21 96       	adiw	r28, 0x01	; 1
     6e8:	1f 5f       	subi	r17, 0xFF	; 255
     6ea:	ec 16       	cp	r14, r28
     6ec:	fd 06       	cpc	r15, r29
     6ee:	c4 f7       	brge	.-16     	; 0x6e0 <drawRectangleFilled+0x32>
     6f0:	8f ef       	ldi	r24, 0xFF	; 255
     6f2:	a8 1a       	sub	r10, r24
     6f4:	b8 0a       	sbc	r11, r24
     6f6:	0f 5f       	subi	r16, 0xFF	; 255
     6f8:	ac 14       	cp	r10, r12
     6fa:	bd 04       	cpc	r11, r13
     6fc:	31 f4       	brne	.+12     	; 0x70a <drawRectangleFilled+0x5c>
     6fe:	09 c0       	rjmp	.+18     	; 0x712 <drawRectangleFilled+0x64>
     700:	08 2f       	mov	r16, r24
     702:	a1 2c       	mov	r10, r1
     704:	b1 2c       	mov	r11, r1
     706:	e2 2e       	mov	r14, r18
     708:	f1 2c       	mov	r15, r1
     70a:	19 2d       	mov	r17, r9
     70c:	c0 e0       	ldi	r28, 0x00	; 0
     70e:	d0 e0       	ldi	r29, 0x00	; 0
     710:	e7 cf       	rjmp	.-50     	; 0x6e0 <drawRectangleFilled+0x32>
     712:	df 91       	pop	r29
     714:	cf 91       	pop	r28
     716:	1f 91       	pop	r17
     718:	0f 91       	pop	r16
     71a:	ff 90       	pop	r15
     71c:	ef 90       	pop	r14
     71e:	df 90       	pop	r13
     720:	cf 90       	pop	r12
     722:	bf 90       	pop	r11
     724:	af 90       	pop	r10
     726:	9f 90       	pop	r9
     728:	08 95       	ret

0000072a <clear>:
     72a:	e2 e8       	ldi	r30, 0x82	; 130
     72c:	f1 e0       	ldi	r31, 0x01	; 1
     72e:	82 e8       	ldi	r24, 0x82	; 130
     730:	95 e0       	ldi	r25, 0x05	; 5
     732:	11 92       	st	Z+, r1
     734:	e8 17       	cp	r30, r24
     736:	f9 07       	cpc	r31, r25
     738:	e1 f7       	brne	.-8      	; 0x732 <clear+0x8>
     73a:	08 95       	ret

0000073c <show>:
     73c:	82 e8       	ldi	r24, 0x82	; 130
     73e:	91 e0       	ldi	r25, 0x01	; 1
     740:	0c 94 09 0c 	jmp	0x1812	; 0x1812 <sendFramebuffer>
     744:	08 95       	ret

00000746 <drawChar>:
     746:	2f 92       	push	r2
     748:	3f 92       	push	r3
     74a:	4f 92       	push	r4
     74c:	5f 92       	push	r5
     74e:	6f 92       	push	r6
     750:	7f 92       	push	r7
     752:	8f 92       	push	r8
     754:	9f 92       	push	r9
     756:	af 92       	push	r10
     758:	bf 92       	push	r11
     75a:	cf 92       	push	r12
     75c:	df 92       	push	r13
     75e:	ef 92       	push	r14
     760:	ff 92       	push	r15
     762:	0f 93       	push	r16
     764:	1f 93       	push	r17
     766:	cf 93       	push	r28
     768:	df 93       	push	r29
     76a:	56 2e       	mov	r5, r22
     76c:	59 01       	movw	r10, r18
     76e:	48 01       	movw	r8, r16
     770:	de 2d       	mov	r29, r14
     772:	38 2e       	mov	r3, r24
     774:	4e 2c       	mov	r4, r14
     776:	48 0e       	add	r4, r24
     778:	50 e0       	ldi	r21, 0x00	; 0
     77a:	6a 01       	movw	r12, r20
     77c:	cc 0c       	add	r12, r12
     77e:	dd 1c       	adc	r13, r13
     780:	cc 0c       	add	r12, r12
     782:	dd 1c       	adc	r13, r13
     784:	4c 0d       	add	r20, r12
     786:	5d 1d       	adc	r21, r13
     788:	9a 01       	movw	r18, r20
     78a:	28 56       	subi	r18, 0x68	; 104
     78c:	3f 4f       	sbci	r19, 0xFF	; 255
     78e:	69 01       	movw	r12, r18
     790:	68 2e       	mov	r6, r24
     792:	21 2c       	mov	r2, r1
     794:	68 94       	set
     796:	77 24       	eor	r7, r7
     798:	73 f8       	bld	r7, 3
     79a:	76 0e       	add	r7, r22
     79c:	35 e0       	ldi	r19, 0x05	; 5
     79e:	23 16       	cp	r2, r19
     7a0:	91 f1       	breq	.+100    	; 0x806 <drawChar+0xc0>
     7a2:	f6 01       	movw	r30, r12
     7a4:	14 91       	lpm	r17, Z
     7a6:	30 c0       	rjmp	.+96     	; 0x808 <drawChar+0xc2>
     7a8:	10 ff       	sbrs	r17, 0
     7aa:	0d c0       	rjmp	.+26     	; 0x7c6 <drawChar+0x80>
     7ac:	d1 30       	cpi	r29, 0x01	; 1
     7ae:	21 f4       	brne	.+8      	; 0x7b8 <drawChar+0x72>
     7b0:	6c 2f       	mov	r22, r28
     7b2:	83 2d       	mov	r24, r3
     7b4:	0e df       	rcall	.-484    	; 0x5d2 <drawPixel>
     7b6:	16 c0       	rjmp	.+44     	; 0x7e4 <drawChar+0x9e>
     7b8:	01 e0       	ldi	r16, 0x01	; 1
     7ba:	2e 2d       	mov	r18, r14
     7bc:	44 2d       	mov	r20, r4
     7be:	6f 2d       	mov	r22, r15
     7c0:	86 2d       	mov	r24, r6
     7c2:	75 df       	rcall	.-278    	; 0x6ae <drawRectangleFilled>
     7c4:	0f c0       	rjmp	.+30     	; 0x7e4 <drawChar+0x9e>
     7c6:	8a 14       	cp	r8, r10
     7c8:	9b 04       	cpc	r9, r11
     7ca:	61 f0       	breq	.+24     	; 0x7e4 <drawChar+0x9e>
     7cc:	d1 30       	cpi	r29, 0x01	; 1
     7ce:	21 f4       	brne	.+8      	; 0x7d8 <drawChar+0x92>
     7d0:	6c 2f       	mov	r22, r28
     7d2:	83 2d       	mov	r24, r3
     7d4:	fe de       	rcall	.-516    	; 0x5d2 <drawPixel>
     7d6:	06 c0       	rjmp	.+12     	; 0x7e4 <drawChar+0x9e>
     7d8:	01 e0       	ldi	r16, 0x01	; 1
     7da:	2e 2d       	mov	r18, r14
     7dc:	44 2d       	mov	r20, r4
     7de:	6f 2d       	mov	r22, r15
     7e0:	86 2d       	mov	r24, r6
     7e2:	65 df       	rcall	.-310    	; 0x6ae <drawRectangleFilled>
     7e4:	16 95       	lsr	r17
     7e6:	fd 0e       	add	r15, r29
     7e8:	ed 0e       	add	r14, r29
     7ea:	cf 5f       	subi	r28, 0xFF	; 255
     7ec:	c7 11       	cpse	r28, r7
     7ee:	dc cf       	rjmp	.-72     	; 0x7a8 <drawChar+0x62>
     7f0:	23 94       	inc	r2
     7f2:	6d 0e       	add	r6, r29
     7f4:	4d 0e       	add	r4, r29
     7f6:	33 94       	inc	r3
     7f8:	ff ef       	ldi	r31, 0xFF	; 255
     7fa:	cf 1a       	sub	r12, r31
     7fc:	df 0a       	sbc	r13, r31
     7fe:	26 e0       	ldi	r18, 0x06	; 6
     800:	22 12       	cpse	r2, r18
     802:	cc cf       	rjmp	.-104    	; 0x79c <drawChar+0x56>
     804:	06 c0       	rjmp	.+12     	; 0x812 <drawChar+0xcc>
     806:	10 e0       	ldi	r17, 0x00	; 0
     808:	c5 2d       	mov	r28, r5
     80a:	e5 2c       	mov	r14, r5
     80c:	ed 0e       	add	r14, r29
     80e:	f5 2c       	mov	r15, r5
     810:	cb cf       	rjmp	.-106    	; 0x7a8 <drawChar+0x62>
     812:	df 91       	pop	r29
     814:	cf 91       	pop	r28
     816:	1f 91       	pop	r17
     818:	0f 91       	pop	r16
     81a:	ff 90       	pop	r15
     81c:	ef 90       	pop	r14
     81e:	df 90       	pop	r13
     820:	cf 90       	pop	r12
     822:	bf 90       	pop	r11
     824:	af 90       	pop	r10
     826:	9f 90       	pop	r9
     828:	8f 90       	pop	r8
     82a:	7f 90       	pop	r7
     82c:	6f 90       	pop	r6
     82e:	5f 90       	pop	r5
     830:	4f 90       	pop	r4
     832:	3f 90       	pop	r3
     834:	2f 90       	pop	r2
     836:	08 95       	ret

00000838 <drawString>:
     838:	af 92       	push	r10
     83a:	bf 92       	push	r11
     83c:	cf 92       	push	r12
     83e:	df 92       	push	r13
     840:	ef 92       	push	r14
     842:	0f 93       	push	r16
     844:	1f 93       	push	r17
     846:	cf 93       	push	r28
     848:	5b 01       	movw	r10, r22
     84a:	fa 01       	movw	r30, r20
     84c:	c8 2f       	mov	r28, r24
     84e:	40 81       	ld	r20, Z
     850:	44 23       	and	r20, r20
     852:	a9 f0       	breq	.+42     	; 0x87e <drawString+0x46>
     854:	6f 01       	movw	r12, r30
     856:	8f ef       	ldi	r24, 0xFF	; 255
     858:	c8 1a       	sub	r12, r24
     85a:	d8 0a       	sbc	r13, r24
     85c:	68 94       	set
     85e:	ee 24       	eor	r14, r14
     860:	e1 f8       	bld	r14, 1
     862:	00 e0       	ldi	r16, 0x00	; 0
     864:	10 e0       	ldi	r17, 0x00	; 0
     866:	20 e0       	ldi	r18, 0x00	; 0
     868:	30 e0       	ldi	r19, 0x00	; 0
     86a:	b5 01       	movw	r22, r10
     86c:	8c 2f       	mov	r24, r28
     86e:	90 e0       	ldi	r25, 0x00	; 0
     870:	6a df       	rcall	.-300    	; 0x746 <drawChar>
     872:	c4 5f       	subi	r28, 0xF4	; 244
     874:	f6 01       	movw	r30, r12
     876:	41 91       	ld	r20, Z+
     878:	6f 01       	movw	r12, r30
     87a:	41 11       	cpse	r20, r1
     87c:	ef cf       	rjmp	.-34     	; 0x85c <drawString+0x24>
     87e:	cf 91       	pop	r28
     880:	1f 91       	pop	r17
     882:	0f 91       	pop	r16
     884:	ef 90       	pop	r14
     886:	df 90       	pop	r13
     888:	cf 90       	pop	r12
     88a:	bf 90       	pop	r11
     88c:	af 90       	pop	r10
     88e:	08 95       	ret

00000890 <drawNumber>:
     890:	af 92       	push	r10
     892:	bf 92       	push	r11
     894:	cf 92       	push	r12
     896:	df 92       	push	r13
     898:	ef 92       	push	r14
     89a:	ff 92       	push	r15
     89c:	0f 93       	push	r16
     89e:	1f 93       	push	r17
     8a0:	cf 93       	push	r28
     8a2:	df 93       	push	r29
     8a4:	cd b7       	in	r28, 0x3d	; 61
     8a6:	de b7       	in	r29, 0x3e	; 62
     8a8:	6c 01       	movw	r12, r24
     8aa:	5b 01       	movw	r10, r22
     8ac:	ed b6       	in	r14, 0x3d	; 61
     8ae:	fe b6       	in	r15, 0x3e	; 62
     8b0:	4a 30       	cpi	r20, 0x0A	; 10
     8b2:	51 05       	cpc	r21, r1
     8b4:	4c f0       	brlt	.+18     	; 0x8c8 <drawNumber+0x38>
     8b6:	44 36       	cpi	r20, 0x64	; 100
     8b8:	51 05       	cpc	r21, r1
     8ba:	44 f0       	brlt	.+16     	; 0x8cc <drawNumber+0x3c>
     8bc:	48 3e       	cpi	r20, 0xE8	; 232
     8be:	23 e0       	ldi	r18, 0x03	; 3
     8c0:	52 07       	cpc	r21, r18
     8c2:	34 f0       	brlt	.+12     	; 0x8d0 <drawNumber+0x40>
     8c4:	87 e0       	ldi	r24, 0x07	; 7
     8c6:	05 c0       	rjmp	.+10     	; 0x8d2 <drawNumber+0x42>
     8c8:	82 e0       	ldi	r24, 0x02	; 2
     8ca:	03 c0       	rjmp	.+6      	; 0x8d2 <drawNumber+0x42>
     8cc:	83 e0       	ldi	r24, 0x03	; 3
     8ce:	01 c0       	rjmp	.+2      	; 0x8d2 <drawNumber+0x42>
     8d0:	84 e0       	ldi	r24, 0x04	; 4
     8d2:	2d b7       	in	r18, 0x3d	; 61
     8d4:	3e b7       	in	r19, 0x3e	; 62
     8d6:	28 1b       	sub	r18, r24
     8d8:	31 09       	sbc	r19, r1
     8da:	0f b6       	in	r0, 0x3f	; 63
     8dc:	f8 94       	cli
     8de:	3e bf       	out	0x3e, r19	; 62
     8e0:	0f be       	out	0x3f, r0	; 63
     8e2:	2d bf       	out	0x3d, r18	; 61
     8e4:	0d b7       	in	r16, 0x3d	; 61
     8e6:	1e b7       	in	r17, 0x3e	; 62
     8e8:	0f 5f       	subi	r16, 0xFF	; 255
     8ea:	1f 4f       	sbci	r17, 0xFF	; 255
     8ec:	5f 93       	push	r21
     8ee:	4f 93       	push	r20
     8f0:	82 e1       	ldi	r24, 0x12	; 18
     8f2:	91 e0       	ldi	r25, 0x01	; 1
     8f4:	9f 93       	push	r25
     8f6:	8f 93       	push	r24
     8f8:	1f 93       	push	r17
     8fa:	0f 93       	push	r16
     8fc:	0e 94 7b 0d 	call	0x1af6	; 0x1af6 <sprintf>
     900:	40 2f       	mov	r20, r16
     902:	51 2f       	mov	r21, r17
     904:	b5 01       	movw	r22, r10
     906:	c6 01       	movw	r24, r12
     908:	97 df       	rcall	.-210    	; 0x838 <drawString>
     90a:	0f 90       	pop	r0
     90c:	0f 90       	pop	r0
     90e:	0f 90       	pop	r0
     910:	0f 90       	pop	r0
     912:	0f 90       	pop	r0
     914:	0f 90       	pop	r0
     916:	0f b6       	in	r0, 0x3f	; 63
     918:	f8 94       	cli
     91a:	fe be       	out	0x3e, r15	; 62
     91c:	0f be       	out	0x3f, r0	; 63
     91e:	ed be       	out	0x3d, r14	; 61
     920:	df 91       	pop	r29
     922:	cf 91       	pop	r28
     924:	1f 91       	pop	r17
     926:	0f 91       	pop	r16
     928:	ff 90       	pop	r15
     92a:	ef 90       	pop	r14
     92c:	df 90       	pop	r13
     92e:	cf 90       	pop	r12
     930:	bf 90       	pop	r11
     932:	af 90       	pop	r10
     934:	08 95       	ret

00000936 <drawRunning>:
     936:	f9 de       	rcall	.-526    	; 0x72a <clear>
     938:	45 e1       	ldi	r20, 0x15	; 21
     93a:	51 e0       	ldi	r21, 0x01	; 1
     93c:	68 e1       	ldi	r22, 0x18	; 24
     93e:	70 e0       	ldi	r23, 0x00	; 0
     940:	88 e1       	ldi	r24, 0x18	; 24
     942:	90 e0       	ldi	r25, 0x00	; 0
     944:	79 df       	rcall	.-270    	; 0x838 <drawString>
     946:	fa ce       	rjmp	.-524    	; 0x73c <show>
     948:	08 95       	ret

0000094a <drawPause>:
     94a:	cf 93       	push	r28
     94c:	c8 2f       	mov	r28, r24
     94e:	ed de       	rcall	.-550    	; 0x72a <clear>
     950:	42 e1       	ldi	r20, 0x12	; 18
     952:	66 e0       	ldi	r22, 0x06	; 6
     954:	8c e0       	ldi	r24, 0x0C	; 12
     956:	5a de       	rcall	.-844    	; 0x60c <drawVLine>
     958:	42 e1       	ldi	r20, 0x12	; 18
     95a:	66 e0       	ldi	r22, 0x06	; 6
     95c:	8b e0       	ldi	r24, 0x0B	; 11
     95e:	56 de       	rcall	.-852    	; 0x60c <drawVLine>
     960:	4d e1       	ldi	r20, 0x1D	; 29
     962:	51 e0       	ldi	r21, 0x01	; 1
     964:	68 e0       	ldi	r22, 0x08	; 8
     966:	70 e0       	ldi	r23, 0x00	; 0
     968:	8f e0       	ldi	r24, 0x0F	; 15
     96a:	90 e0       	ldi	r25, 0x00	; 0
     96c:	65 df       	rcall	.-310    	; 0x838 <drawString>
     96e:	4f e1       	ldi	r20, 0x1F	; 31
     970:	51 e0       	ldi	r21, 0x01	; 1
     972:	68 e0       	ldi	r22, 0x08	; 8
     974:	70 e0       	ldi	r23, 0x00	; 0
     976:	81 e2       	ldi	r24, 0x21	; 33
     978:	90 e0       	ldi	r25, 0x00	; 0
     97a:	5e df       	rcall	.-324    	; 0x838 <drawString>
     97c:	41 e2       	ldi	r20, 0x21	; 33
     97e:	51 e0       	ldi	r21, 0x01	; 1
     980:	68 e0       	ldi	r22, 0x08	; 8
     982:	70 e0       	ldi	r23, 0x00	; 0
     984:	83 e3       	ldi	r24, 0x33	; 51
     986:	90 e0       	ldi	r25, 0x00	; 0
     988:	57 df       	rcall	.-338    	; 0x838 <drawString>
     98a:	43 e2       	ldi	r20, 0x23	; 35
     98c:	51 e0       	ldi	r21, 0x01	; 1
     98e:	68 e0       	ldi	r22, 0x08	; 8
     990:	70 e0       	ldi	r23, 0x00	; 0
     992:	83 e4       	ldi	r24, 0x43	; 67
     994:	90 e0       	ldi	r25, 0x00	; 0
     996:	50 df       	rcall	.-352    	; 0x838 <drawString>
     998:	45 e2       	ldi	r20, 0x25	; 37
     99a:	51 e0       	ldi	r21, 0x01	; 1
     99c:	68 e0       	ldi	r22, 0x08	; 8
     99e:	70 e0       	ldi	r23, 0x00	; 0
     9a0:	85 e5       	ldi	r24, 0x55	; 85
     9a2:	90 e0       	ldi	r25, 0x00	; 0
     9a4:	49 df       	rcall	.-366    	; 0x838 <drawString>
     9a6:	47 e2       	ldi	r20, 0x27	; 39
     9a8:	51 e0       	ldi	r21, 0x01	; 1
     9aa:	68 e0       	ldi	r22, 0x08	; 8
     9ac:	70 e0       	ldi	r23, 0x00	; 0
     9ae:	87 e6       	ldi	r24, 0x67	; 103
     9b0:	90 e0       	ldi	r25, 0x00	; 0
     9b2:	42 df       	rcall	.-380    	; 0x838 <drawString>
     9b4:	42 e1       	ldi	r20, 0x12	; 18
     9b6:	66 e0       	ldi	r22, 0x06	; 6
     9b8:	84 e7       	ldi	r24, 0x74	; 116
     9ba:	28 de       	rcall	.-944    	; 0x60c <drawVLine>
     9bc:	42 e1       	ldi	r20, 0x12	; 18
     9be:	66 e0       	ldi	r22, 0x06	; 6
     9c0:	85 e7       	ldi	r24, 0x75	; 117
     9c2:	24 de       	rcall	.-952    	; 0x60c <drawVLine>
     9c4:	49 e2       	ldi	r20, 0x29	; 41
     9c6:	51 e0       	ldi	r21, 0x01	; 1
     9c8:	6c e1       	ldi	r22, 0x1C	; 28
     9ca:	70 e0       	ldi	r23, 0x00	; 0
     9cc:	80 e0       	ldi	r24, 0x00	; 0
     9ce:	90 e0       	ldi	r25, 0x00	; 0
     9d0:	33 df       	rcall	.-410    	; 0x838 <drawString>
     9d2:	41 e3       	ldi	r20, 0x31	; 49
     9d4:	51 e0       	ldi	r21, 0x01	; 1
     9d6:	6c e1       	ldi	r22, 0x1C	; 28
     9d8:	70 e0       	ldi	r23, 0x00	; 0
     9da:	8a e5       	ldi	r24, 0x5A	; 90
     9dc:	90 e0       	ldi	r25, 0x00	; 0
     9de:	2c df       	rcall	.-424    	; 0x838 <drawString>
     9e0:	45 e3       	ldi	r20, 0x35	; 53
     9e2:	51 e0       	ldi	r21, 0x01	; 1
     9e4:	6c e2       	ldi	r22, 0x2C	; 44
     9e6:	70 e0       	ldi	r23, 0x00	; 0
     9e8:	80 e0       	ldi	r24, 0x00	; 0
     9ea:	90 e0       	ldi	r25, 0x00	; 0
     9ec:	25 df       	rcall	.-438    	; 0x838 <drawString>
     9ee:	4c 2f       	mov	r20, r28
     9f0:	50 e0       	ldi	r21, 0x00	; 0
     9f2:	6c e2       	ldi	r22, 0x2C	; 44
     9f4:	70 e0       	ldi	r23, 0x00	; 0
     9f6:	84 e6       	ldi	r24, 0x64	; 100
     9f8:	90 e0       	ldi	r25, 0x00	; 0
     9fa:	4a df       	rcall	.-364    	; 0x890 <drawNumber>
     9fc:	9f de       	rcall	.-706    	; 0x73c <show>
     9fe:	cf 91       	pop	r28
     a00:	08 95       	ret

00000a02 <drawCalibrateADC>:

// Draws ADC Calibration Screen
void drawCalibrateADC(void){
	
	drawString(12,0, "Calibrate");
     a02:	4a e4       	ldi	r20, 0x4A	; 74
     a04:	51 e0       	ldi	r21, 0x01	; 1
     a06:	60 e0       	ldi	r22, 0x00	; 0
     a08:	70 e0       	ldi	r23, 0x00	; 0
     a0a:	8c e0       	ldi	r24, 0x0C	; 12
     a0c:	90 e0       	ldi	r25, 0x00	; 0
     a0e:	14 df       	rcall	.-472    	; 0x838 <drawString>
	
	drawVLine(9, 20, 32);
     a10:	40 e2       	ldi	r20, 0x20	; 32
     a12:	64 e1       	ldi	r22, 0x14	; 20
     a14:	89 e0       	ldi	r24, 0x09	; 9
     a16:	fa dd       	rcall	.-1036   	; 0x60c <drawVLine>
	drawString(12,20,"BL");
     a18:	4e e3       	ldi	r20, 0x3E	; 62
     a1a:	51 e0       	ldi	r21, 0x01	; 1
     a1c:	64 e1       	ldi	r22, 0x14	; 20
     a1e:	70 e0       	ldi	r23, 0x00	; 0
     a20:	8c e0       	ldi	r24, 0x0C	; 12
     a22:	90 e0       	ldi	r25, 0x00	; 0
     a24:	09 df       	rcall	.-494    	; 0x838 <drawString>
	drawVLine(37, 20, 32);
     a26:	40 e2       	ldi	r20, 0x20	; 32
     a28:	64 e1       	ldi	r22, 0x14	; 20
     a2a:	85 e2       	ldi	r24, 0x25	; 37
     a2c:	ef dd       	rcall	.-1058   	; 0x60c <drawVLine>
	drawString(40,20,"WH");
     a2e:	41 e4       	ldi	r20, 0x41	; 65
     a30:	51 e0       	ldi	r21, 0x01	; 1
     a32:	64 e1       	ldi	r22, 0x14	; 20
     a34:	70 e0       	ldi	r23, 0x00	; 0
     a36:	88 e2       	ldi	r24, 0x28	; 40
     a38:	90 e0       	ldi	r25, 0x00	; 0
	drawVLine(65, 20, 32);
     a3a:	fe de       	rcall	.-516    	; 0x838 <drawString>
     a3c:	40 e2       	ldi	r20, 0x20	; 32
     a3e:	64 e1       	ldi	r22, 0x14	; 20
     a40:	81 e4       	ldi	r24, 0x41	; 65
     a42:	e4 dd       	rcall	.-1080   	; 0x60c <drawVLine>
	drawString(68,20,"AL");
     a44:	44 e4       	ldi	r20, 0x44	; 68
     a46:	51 e0       	ldi	r21, 0x01	; 1
     a48:	64 e1       	ldi	r22, 0x14	; 20
     a4a:	70 e0       	ldi	r23, 0x00	; 0
     a4c:	84 e4       	ldi	r24, 0x44	; 68
     a4e:	90 e0       	ldi	r25, 0x00	; 0
	drawVLine(93, 20, 32);
     a50:	f3 de       	rcall	.-538    	; 0x838 <drawString>
     a52:	40 e2       	ldi	r20, 0x20	; 32
     a54:	64 e1       	ldi	r22, 0x14	; 20
     a56:	8d e5       	ldi	r24, 0x5D	; 93
	drawString(96,20,"ST");
     a58:	d9 dd       	rcall	.-1102   	; 0x60c <drawVLine>
     a5a:	47 e4       	ldi	r20, 0x47	; 71
     a5c:	51 e0       	ldi	r21, 0x01	; 1
     a5e:	64 e1       	ldi	r22, 0x14	; 20
     a60:	70 e0       	ldi	r23, 0x00	; 0
     a62:	80 e6       	ldi	r24, 0x60	; 96
     a64:	90 e0       	ldi	r25, 0x00	; 0
	drawVLine(121, 20, 32);	
     a66:	e8 de       	rcall	.-560    	; 0x838 <drawString>
     a68:	40 e2       	ldi	r20, 0x20	; 32
     a6a:	64 e1       	ldi	r22, 0x14	; 20
     a6c:	89 e7       	ldi	r24, 0x79	; 121
     a6e:	ce cd       	rjmp	.-1124   	; 0x60c <drawVLine>
     a70:	08 95       	ret

00000a72 <drawSelectBar>:
void drawSelectBar(uint8_t barState){


	// Selection Bar
	
	switch(barState){
     a72:	82 30       	cpi	r24, 0x02	; 2
     a74:	b1 f0       	breq	.+44     	; 0xaa2 <drawSelectBar+0x30>
     a76:	18 f4       	brcc	.+6      	; 0xa7e <drawSelectBar+0xc>
     a78:	81 30       	cpi	r24, 0x01	; 1
     a7a:	31 f0       	breq	.+12     	; 0xa88 <drawSelectBar+0x16>
     a7c:	08 95       	ret
     a7e:	83 30       	cpi	r24, 0x03	; 3
     a80:	e9 f0       	breq	.+58     	; 0xabc <drawSelectBar+0x4a>
     a82:	84 30       	cpi	r24, 0x04	; 4
     a84:	41 f1       	breq	.+80     	; 0xad6 <drawSelectBar+0x64>
     a86:	08 95       	ret
		// Black Selection Bar
		case selBlack:
		
			drawHLine(12,38,23);
     a88:	47 e1       	ldi	r20, 0x17	; 23
     a8a:	66 e2       	ldi	r22, 0x26	; 38
     a8c:	8c e0       	ldi	r24, 0x0C	; 12
     a8e:	d1 dd       	rcall	.-1118   	; 0x632 <drawHLine>
			drawHLine(12,40,23);
     a90:	47 e1       	ldi	r20, 0x17	; 23
     a92:	68 e2       	ldi	r22, 0x28	; 40
     a94:	8c e0       	ldi	r24, 0x0C	; 12
     a96:	cd dd       	rcall	.-1126   	; 0x632 <drawHLine>
			drawHLine(12,42,23);
     a98:	47 e1       	ldi	r20, 0x17	; 23
     a9a:	6a e2       	ldi	r22, 0x2A	; 42
     a9c:	8c e0       	ldi	r24, 0x0C	; 12
     a9e:	c9 cd       	rjmp	.-1134   	; 0x632 <drawHLine>
			break;
     aa0:	08 95       	ret
		// White Selection Bar
		case selWhite:
			drawHLine(40,38,23);
     aa2:	47 e1       	ldi	r20, 0x17	; 23
     aa4:	66 e2       	ldi	r22, 0x26	; 38
     aa6:	88 e2       	ldi	r24, 0x28	; 40
     aa8:	c4 dd       	rcall	.-1144   	; 0x632 <drawHLine>
			drawHLine(40,40,23);
     aaa:	47 e1       	ldi	r20, 0x17	; 23
     aac:	68 e2       	ldi	r22, 0x28	; 40
     aae:	88 e2       	ldi	r24, 0x28	; 40
     ab0:	c0 dd       	rcall	.-1152   	; 0x632 <drawHLine>
			drawHLine(40,42,23);
     ab2:	47 e1       	ldi	r20, 0x17	; 23
     ab4:	6a e2       	ldi	r22, 0x2A	; 42
     ab6:	88 e2       	ldi	r24, 0x28	; 40
     ab8:	bc cd       	rjmp	.-1160   	; 0x632 <drawHLine>
			break;
     aba:	08 95       	ret
		// Alum Selection bar
		case selAlum:
			drawHLine(68,38,23);
     abc:	47 e1       	ldi	r20, 0x17	; 23
     abe:	66 e2       	ldi	r22, 0x26	; 38
     ac0:	84 e4       	ldi	r24, 0x44	; 68
     ac2:	b7 dd       	rcall	.-1170   	; 0x632 <drawHLine>
			drawHLine(68,40,23);
     ac4:	47 e1       	ldi	r20, 0x17	; 23
     ac6:	68 e2       	ldi	r22, 0x28	; 40
     ac8:	84 e4       	ldi	r24, 0x44	; 68
     aca:	b3 dd       	rcall	.-1178   	; 0x632 <drawHLine>
			drawHLine(68,42,23);
     acc:	47 e1       	ldi	r20, 0x17	; 23
     ace:	6a e2       	ldi	r22, 0x2A	; 42
     ad0:	84 e4       	ldi	r24, 0x44	; 68
     ad2:	af cd       	rjmp	.-1186   	; 0x632 <drawHLine>
			break;
     ad4:	08 95       	ret
		case selSteel:
		// Steel Selection Bar
			drawHLine(96,38,23);
     ad6:	47 e1       	ldi	r20, 0x17	; 23
     ad8:	66 e2       	ldi	r22, 0x26	; 38
     ada:	80 e6       	ldi	r24, 0x60	; 96
     adc:	aa dd       	rcall	.-1196   	; 0x632 <drawHLine>
			drawHLine(96,40,23);
     ade:	47 e1       	ldi	r20, 0x17	; 23
     ae0:	68 e2       	ldi	r22, 0x28	; 40
     ae2:	80 e6       	ldi	r24, 0x60	; 96
     ae4:	a6 dd       	rcall	.-1204   	; 0x632 <drawHLine>
     ae6:	47 e1       	ldi	r20, 0x17	; 23
			drawHLine(96,42,23);	
     ae8:	6a e2       	ldi	r22, 0x2A	; 42
     aea:	80 e6       	ldi	r24, 0x60	; 96
     aec:	a2 cd       	rjmp	.-1212   	; 0x632 <drawHLine>
     aee:	08 95       	ret

00000af0 <drawBlackCali>:
     af0:	cf 93       	push	r28
     af2:	df 93       	push	r29
			break;
		
	}// end switch
}

void drawBlackCali(uint16_t blkCali){
     af4:	ec 01       	movw	r28, r24
	
	clear();
     af6:	19 de       	rcall	.-974    	; 0x72a <clear>
	drawString(5,32, "Black:");
     af8:	44 e5       	ldi	r20, 0x54	; 84
     afa:	51 e0       	ldi	r21, 0x01	; 1
     afc:	60 e2       	ldi	r22, 0x20	; 32
     afe:	70 e0       	ldi	r23, 0x00	; 0
     b00:	85 e0       	ldi	r24, 0x05	; 5
     b02:	90 e0       	ldi	r25, 0x00	; 0
     b04:	99 de       	rcall	.-718    	; 0x838 <drawString>
	drawNumber(80,32, blkCali);
     b06:	ae 01       	movw	r20, r28
     b08:	60 e2       	ldi	r22, 0x20	; 32
     b0a:	70 e0       	ldi	r23, 0x00	; 0
     b0c:	80 e5       	ldi	r24, 0x50	; 80
     b0e:	90 e0       	ldi	r25, 0x00	; 0
	show();
     b10:	bf de       	rcall	.-642    	; 0x890 <drawNumber>
     b12:	14 de       	rcall	.-984    	; 0x73c <show>
	
}
     b14:	df 91       	pop	r29
     b16:	cf 91       	pop	r28
     b18:	08 95       	ret

00000b1a <drawWhiteCali>:


void drawWhiteCali(uint16_t whtCali){
     b1a:	cf 93       	push	r28
     b1c:	df 93       	push	r29
     b1e:	ec 01       	movw	r28, r24
		clear();
     b20:	04 de       	rcall	.-1016   	; 0x72a <clear>
		drawString(5,32, "white:");
     b22:	4b e5       	ldi	r20, 0x5B	; 91
     b24:	51 e0       	ldi	r21, 0x01	; 1
     b26:	60 e2       	ldi	r22, 0x20	; 32
     b28:	70 e0       	ldi	r23, 0x00	; 0
     b2a:	85 e0       	ldi	r24, 0x05	; 5
     b2c:	90 e0       	ldi	r25, 0x00	; 0
     b2e:	84 de       	rcall	.-760    	; 0x838 <drawString>
		drawNumber(80,32, whtCali);
     b30:	ae 01       	movw	r20, r28
     b32:	60 e2       	ldi	r22, 0x20	; 32
     b34:	70 e0       	ldi	r23, 0x00	; 0
     b36:	80 e5       	ldi	r24, 0x50	; 80
     b38:	90 e0       	ldi	r25, 0x00	; 0
		show();
     b3a:	aa de       	rcall	.-684    	; 0x890 <drawNumber>
     b3c:	ff dd       	rcall	.-1026   	; 0x73c <show>
}
     b3e:	df 91       	pop	r29
     b40:	cf 91       	pop	r28
     b42:	08 95       	ret

00000b44 <drawAluminumCali>:


void drawAluminumCali(uint16_t almCali){
     b44:	cf 93       	push	r28
     b46:	df 93       	push	r29
     b48:	ec 01       	movw	r28, r24
	clear();
     b4a:	ef dd       	rcall	.-1058   	; 0x72a <clear>
	drawString(5,32, "Alum:");
     b4c:	42 e6       	ldi	r20, 0x62	; 98
     b4e:	51 e0       	ldi	r21, 0x01	; 1
     b50:	60 e2       	ldi	r22, 0x20	; 32
     b52:	70 e0       	ldi	r23, 0x00	; 0
     b54:	85 e0       	ldi	r24, 0x05	; 5
     b56:	90 e0       	ldi	r25, 0x00	; 0
     b58:	6f de       	rcall	.-802    	; 0x838 <drawString>
	drawNumber(80,32, almCali);
     b5a:	ae 01       	movw	r20, r28
     b5c:	60 e2       	ldi	r22, 0x20	; 32
     b5e:	70 e0       	ldi	r23, 0x00	; 0
     b60:	80 e5       	ldi	r24, 0x50	; 80
     b62:	90 e0       	ldi	r25, 0x00	; 0
	show();	
     b64:	95 de       	rcall	.-726    	; 0x890 <drawNumber>
     b66:	ea dd       	rcall	.-1068   	; 0x73c <show>
}
     b68:	df 91       	pop	r29
     b6a:	cf 91       	pop	r28
     b6c:	08 95       	ret

00000b6e <drawSteelCali>:


void drawSteelCali(uint16_t stlCali){
     b6e:	cf 93       	push	r28
     b70:	df 93       	push	r29
     b72:	ec 01       	movw	r28, r24
	clear();
     b74:	da dd       	rcall	.-1100   	; 0x72a <clear>
	drawString(5,32, "Steel:");
     b76:	48 e6       	ldi	r20, 0x68	; 104
     b78:	51 e0       	ldi	r21, 0x01	; 1
     b7a:	60 e2       	ldi	r22, 0x20	; 32
     b7c:	70 e0       	ldi	r23, 0x00	; 0
     b7e:	85 e0       	ldi	r24, 0x05	; 5
     b80:	90 e0       	ldi	r25, 0x00	; 0
     b82:	5a de       	rcall	.-844    	; 0x838 <drawString>
	drawNumber(80,32, stlCali);
     b84:	ae 01       	movw	r20, r28
     b86:	60 e2       	ldi	r22, 0x20	; 32
     b88:	70 e0       	ldi	r23, 0x00	; 0
     b8a:	80 e5       	ldi	r24, 0x50	; 80
     b8c:	90 e0       	ldi	r25, 0x00	; 0
	show();	
     b8e:	80 de       	rcall	.-768    	; 0x890 <drawNumber>
     b90:	d5 dd       	rcall	.-1110   	; 0x73c <show>
     b92:	df 91       	pop	r29
     b94:	cf 91       	pop	r28
     b96:	08 95       	ret

00000b98 <i2cInit>:
*************************************************************************/
void i2cInit(void)
{
  /* initialize TWI clock: 100 kHz clock, TWPS = 0 => prescaler = 1 */
  
  TWSR = 0;                         /* no prescaler */
     b98:	10 92 b9 00 	sts	0x00B9, r1	; 0x8000b9 <__TEXT_REGION_LENGTH__+0x7e00b9>
  TWBR = ((F_CPU/SCL_CLOCK)-16)/2;  /* must be > 10 for stable operation */
     b9c:	80 e2       	ldi	r24, 0x20	; 32
     b9e:	80 93 b8 00 	sts	0x00B8, r24	; 0x8000b8 <__TEXT_REGION_LENGTH__+0x7e00b8>
     ba2:	08 95       	ret

00000ba4 <i2cStart>:
uint8_t i2cStart(uint8_t address)
{
    uint8_t   twst;

	// send START condition
	TWCR = (1<<TWINT) | (1<<TWSTA) | (1<<TWEN);
     ba4:	94 ea       	ldi	r25, 0xA4	; 164
     ba6:	90 93 bc 00 	sts	0x00BC, r25	; 0x8000bc <__TEXT_REGION_LENGTH__+0x7e00bc>

	// wait until transmission completed
	while(!(TWCR & (1<<TWINT)));
     baa:	ec eb       	ldi	r30, 0xBC	; 188
     bac:	f0 e0       	ldi	r31, 0x00	; 0
     bae:	90 81       	ld	r25, Z
     bb0:	99 23       	and	r25, r25
     bb2:	ec f7       	brge	.-6      	; 0xbae <i2cStart+0xa>

	// check value of TWI Status Register. Mask prescaler bits.
	twst = TW_STATUS & 0xF8;
     bb4:	90 91 b9 00 	lds	r25, 0x00B9	; 0x8000b9 <__TEXT_REGION_LENGTH__+0x7e00b9>
     bb8:	98 7f       	andi	r25, 0xF8	; 248
	if ( (twst != TW_START) && (twst != TW_REP_START)) return 1;
     bba:	98 30       	cpi	r25, 0x08	; 8
     bbc:	11 f0       	breq	.+4      	; 0xbc2 <i2cStart+0x1e>
     bbe:	90 31       	cpi	r25, 0x10	; 16
     bc0:	a1 f4       	brne	.+40     	; 0xbea <i2cStart+0x46>

	// send device address
	TWDR = address;
     bc2:	80 93 bb 00 	sts	0x00BB, r24	; 0x8000bb <__TEXT_REGION_LENGTH__+0x7e00bb>
	TWCR = (1<<TWINT) | (1<<TWEN);
     bc6:	84 e8       	ldi	r24, 0x84	; 132
     bc8:	80 93 bc 00 	sts	0x00BC, r24	; 0x8000bc <__TEXT_REGION_LENGTH__+0x7e00bc>

	// wail until transmission completed and ACK/NACK has been received
	while(!(TWCR & (1<<TWINT)));
     bcc:	ec eb       	ldi	r30, 0xBC	; 188
     bce:	f0 e0       	ldi	r31, 0x00	; 0
     bd0:	80 81       	ld	r24, Z
     bd2:	88 23       	and	r24, r24
     bd4:	ec f7       	brge	.-6      	; 0xbd0 <i2cStart+0x2c>

	// check value of TWI Status Register. Mask prescaler bits.
	twst = TW_STATUS & 0xF8;
     bd6:	90 91 b9 00 	lds	r25, 0x00B9	; 0x8000b9 <__TEXT_REGION_LENGTH__+0x7e00b9>
     bda:	98 7f       	andi	r25, 0xF8	; 248
	if ( (twst != TW_MT_SLA_ACK) && (twst != TW_MR_SLA_ACK) ) return 1;
     bdc:	98 31       	cpi	r25, 0x18	; 24
     bde:	39 f0       	breq	.+14     	; 0xbee <i2cStart+0x4a>
	// wait until transmission completed
	while(!(TWCR & (1<<TWINT)));

	// check value of TWI Status Register. Mask prescaler bits.
	twst = TW_STATUS & 0xF8;
	if ( (twst != TW_START) && (twst != TW_REP_START)) return 1;
     be0:	81 e0       	ldi	r24, 0x01	; 1
     be2:	90 34       	cpi	r25, 0x40	; 64
     be4:	29 f4       	brne	.+10     	; 0xbf0 <i2cStart+0x4c>
     be6:	80 e0       	ldi	r24, 0x00	; 0
     be8:	08 95       	ret
     bea:	81 e0       	ldi	r24, 0x01	; 1
     bec:	08 95       	ret

	// check value of TWI Status Register. Mask prescaler bits.
	twst = TW_STATUS & 0xF8;
	if ( (twst != TW_MT_SLA_ACK) && (twst != TW_MR_SLA_ACK) ) return 1;

	return 0;
     bee:	80 e0       	ldi	r24, 0x00	; 0

}/* i2c_start */
     bf0:	08 95       	ret

00000bf2 <i2cWrite>:
uint8_t i2cWrite(uint8_t data )
{	
    uint8_t   twst;
    
	// send data to the previously addressed device
	TWDR = data;
     bf2:	80 93 bb 00 	sts	0x00BB, r24	; 0x8000bb <__TEXT_REGION_LENGTH__+0x7e00bb>
	TWCR = (1<<TWINT) | (1<<TWEN);
     bf6:	84 e8       	ldi	r24, 0x84	; 132
     bf8:	80 93 bc 00 	sts	0x00BC, r24	; 0x8000bc <__TEXT_REGION_LENGTH__+0x7e00bc>

	// wait until transmission completed
	while(!(TWCR & (1<<TWINT)));
     bfc:	ec eb       	ldi	r30, 0xBC	; 188
     bfe:	f0 e0       	ldi	r31, 0x00	; 0
     c00:	80 81       	ld	r24, Z
     c02:	88 23       	and	r24, r24
     c04:	ec f7       	brge	.-6      	; 0xc00 <i2cWrite+0xe>

	// check value of TWI Status Register. Mask prescaler bits
	twst = TW_STATUS & 0xF8;
     c06:	90 91 b9 00 	lds	r25, 0x00B9	; 0x8000b9 <__TEXT_REGION_LENGTH__+0x7e00b9>
     c0a:	98 7f       	andi	r25, 0xF8	; 248
     c0c:	81 e0       	ldi	r24, 0x01	; 1
     c0e:	98 32       	cpi	r25, 0x28	; 40
     c10:	09 f4       	brne	.+2      	; 0xc14 <i2cWrite+0x22>
     c12:	80 e0       	ldi	r24, 0x00	; 0
	if( twst != TW_MT_DATA_ACK) return 1;
	return 0;

}/* i2c_write */
     c14:	08 95       	ret

00000c16 <i2cStop>:
 Terminates the data transfer and releases the I2C bus
*************************************************************************/
void i2cStop(void)
{
    /* send stop condition */
	TWCR = (1<<TWINT) | (1<<TWEN) | (1<<TWSTO);
     c16:	84 e9       	ldi	r24, 0x94	; 148
     c18:	80 93 bc 00 	sts	0x00BC, r24	; 0x8000bc <__TEXT_REGION_LENGTH__+0x7e00bc>
	
	// wait until stop condition is executed and bus released
	while(TWCR & (1<<TWSTO));
     c1c:	ec eb       	ldi	r30, 0xBC	; 188
     c1e:	f0 e0       	ldi	r31, 0x00	; 0
     c20:	80 81       	ld	r24, Z
     c22:	84 fd       	sbrc	r24, 4
     c24:	fd cf       	rjmp	.-6      	; 0xc20 <i2cStop+0xa>

     c26:	08 95       	ret

00000c28 <timer1Init>:
#include "interrupt.h"
void timer1Init (void){ //initialize Timer 1 for CTC (Clear Timer on Compare)
	TCCR1A = 0;
     c28:	10 92 80 00 	sts	0x0080, r1	; 0x800080 <__TEXT_REGION_LENGTH__+0x7e0080>
     c2c:	08 95       	ret

00000c2e <timer0Init>:
/*at a clock frequency of 8MHz this is a 1.024ms timer for each while loop cycle*/
/*e.g. (32/8MHz)x(0xFF=256)=0.001024s=1.024ms*/
void timer0Init(void){ //clock is turned on during interval of use and then off when unused
	//sei(); enables all interrupts thus following is unneccessary 
	//TIMSK2 |= _BV(TOIE2); //enable Timer/Counter 2 Overflow interrupt; sets TOV2 bit in TIFR2 register upon overflow
	TCCR0A=0; //Mode 0:normal port operation; keeps counting no matter what; means you have to reset the TOV2 flag
     c2e:	14 bc       	out	0x24, r1	; 36
     c30:	08 95       	ret

00000c32 <mTimer0>:
}
void mTimer0(int count){
	int i=0;
	int l=0;
	//TCCR0B |= _BV(CS00) | _BV(CS01); //clock pre-scalar (clk/64)
	TCCR0B |=_BV(CS01); //clock pre-scalar (clk/8)
     c32:	25 b5       	in	r18, 0x25	; 37
     c34:	22 60       	ori	r18, 0x02	; 2
     c36:	25 bd       	out	0x25, r18	; 37
	TCNT0=0x00; //set timer equal to zero
     c38:	16 bc       	out	0x26, r1	; 38
	if ((TIFR0 & 0x01) == 0x01)TIFR0|=0x01; //if TOV0 flag is set to 1, reset to 0 by setting bit to 1 (confused?)
     c3a:	a8 9b       	sbis	0x15, 0	; 21
     c3c:	17 c0       	rjmp	.+46     	; 0xc6c <mTimer0+0x3a>
     c3e:	a8 9a       	sbi	0x15, 0	; 21
     c40:	15 c0       	rjmp	.+42     	; 0xc6c <mTimer0+0x3a>
	for (l=0;l<4;l++){
		i=0;
		while (i<count){ //iterate through given count
			if ((TIFR0 & 0x01) == 0x01){ //if overflow has occurred in counter
     c42:	a8 9b       	sbis	0x15, 0	; 21
     c44:	fe cf       	rjmp	.-4      	; 0xc42 <mTimer0+0x10>
				TIFR0|=0x01; //reset overflow flag by writing a 1 to TOV0 bit
     c46:	a8 9a       	sbi	0x15, 0	; 21
				i+=1;
     c48:	2f 5f       	subi	r18, 0xFF	; 255
     c4a:	3f 4f       	sbci	r19, 0xFF	; 255
	TCCR0B |=_BV(CS01); //clock pre-scalar (clk/8)
	TCNT0=0x00; //set timer equal to zero
	if ((TIFR0 & 0x01) == 0x01)TIFR0|=0x01; //if TOV0 flag is set to 1, reset to 0 by setting bit to 1 (confused?)
	for (l=0;l<4;l++){
		i=0;
		while (i<count){ //iterate through given count
     c4c:	28 17       	cp	r18, r24
     c4e:	39 07       	cpc	r19, r25
     c50:	1c f4       	brge	.+6      	; 0xc58 <mTimer0+0x26>
			if ((TIFR0 & 0x01) == 0x01){ //if overflow has occurred in counter
     c52:	a8 9b       	sbis	0x15, 0	; 21
     c54:	f6 cf       	rjmp	.-20     	; 0xc42 <mTimer0+0x10>
     c56:	f7 cf       	rjmp	.-18     	; 0xc46 <mTimer0+0x14>
     c58:	41 50       	subi	r20, 0x01	; 1
     c5a:	51 09       	sbc	r21, r1
	int l=0;
	//TCCR0B |= _BV(CS00) | _BV(CS01); //clock pre-scalar (clk/64)
	TCCR0B |=_BV(CS01); //clock pre-scalar (clk/8)
	TCNT0=0x00; //set timer equal to zero
	if ((TIFR0 & 0x01) == 0x01)TIFR0|=0x01; //if TOV0 flag is set to 1, reset to 0 by setting bit to 1 (confused?)
	for (l=0;l<4;l++){
     c5c:	19 f0       	breq	.+6      	; 0xc64 <mTimer0+0x32>
	//TIMSK2 |= _BV(TOIE2); //enable Timer/Counter 2 Overflow interrupt; sets TOV2 bit in TIFR2 register upon overflow
	TCCR0A=0; //Mode 0:normal port operation; keeps counting no matter what; means you have to reset the TOV2 flag
		//TOP=0xFF; Update is immediate
	//TCCR2B |= _BV(CS20) | _BV(CS21); //clock pre-scalar (clk/32); starts timer
}
void mTimer0(int count){
     c5e:	20 e0       	ldi	r18, 0x00	; 0
     c60:	30 e0       	ldi	r19, 0x00	; 0
     c62:	f4 cf       	rjmp	.-24     	; 0xc4c <mTimer0+0x1a>
				i+=1;
				//equivalent; TIFR0 |= _BV(TOV0)
			}
		}
	}
	TCCR0B&=0b11111000; //disable timer 0
     c64:	85 b5       	in	r24, 0x25	; 37
     c66:	88 7f       	andi	r24, 0xF8	; 248
     c68:	85 bd       	out	0x25, r24	; 37
}
     c6a:	08 95       	ret
	//TIMSK2 |= _BV(TOIE2); //enable Timer/Counter 2 Overflow interrupt; sets TOV2 bit in TIFR2 register upon overflow
	TCCR0A=0; //Mode 0:normal port operation; keeps counting no matter what; means you have to reset the TOV2 flag
		//TOP=0xFF; Update is immediate
	//TCCR2B |= _BV(CS20) | _BV(CS21); //clock pre-scalar (clk/32); starts timer
}
void mTimer0(int count){
     c6c:	44 e0       	ldi	r20, 0x04	; 4
     c6e:	50 e0       	ldi	r21, 0x00	; 0
     c70:	f6 cf       	rjmp	.-20     	; 0xc5e <mTimer0+0x2c>

00000c72 <timer3Init>:
		}
	}
	TCCR0B&=0b11111000; //disable timer 0
}
void timer3Init(void){ //clock is turned on during interval of use and then off when unused
	TCCR3A=0; //Mode 0:normal port operation; keeps counting no matter what; means you have to reset the TOV3 flag
     c72:	10 92 90 00 	sts	0x0090, r1	; 0x800090 <__TEXT_REGION_LENGTH__+0x7e0090>
     c76:	08 95       	ret

00000c78 <stepperControl>:
	return (0); //This line returns a 0 value to the calling program
	// generally means no error was returned
}

/*function allows control of direction and quantity of steps to */
void stepperControl(int steps,int *stepperPos, int *stepperIt){
     c78:	8f 92       	push	r8
     c7a:	9f 92       	push	r9
     c7c:	af 92       	push	r10
     c7e:	bf 92       	push	r11
     c80:	cf 92       	push	r12
     c82:	df 92       	push	r13
     c84:	ef 92       	push	r14
     c86:	ff 92       	push	r15
     c88:	0f 93       	push	r16
     c8a:	1f 93       	push	r17
     c8c:	cf 93       	push	r28
     c8e:	df 93       	push	r29
     c90:	7b 01       	movw	r14, r22
     c92:	5a 01       	movw	r10, r20
	int k=0; //timer counter
	uint8_t maxDelay = 15; //20ms corresponds to 50 steps per second
	uint8_t minDelay = 7; //5ms corresponds to 200 steps per second; or 1 revolution per second
	uint8_t differential = maxDelay - minDelay;
	uint8_t delay = maxDelay;
	int PORTAREGSet = *stepperIt;
     c94:	da 01       	movw	r26, r20
     c96:	ed 91       	ld	r30, X+
     c98:	fc 91       	ld	r31, X
	int DIRECTION = 1;
	uint16_t absSteps = abs(steps); //compute absolute value now to save computations in "for" loop
     c9a:	ec 01       	movw	r28, r24
     c9c:	99 23       	and	r25, r25
     c9e:	24 f4       	brge	.+8      	; 0xca8 <stepperControl+0x30>
     ca0:	cc 27       	eor	r28, r28
     ca2:	dd 27       	eor	r29, r29
     ca4:	c8 1b       	sub	r28, r24
     ca6:	d9 0b       	sbc	r29, r25
     ca8:	4e 01       	movw	r8, r28
	if (steps > 0) DIRECTION = 1;// positive or clock-wise
     caa:	18 16       	cp	r1, r24
     cac:	19 06       	cpc	r1, r25
     cae:	3c f0       	brlt	.+14     	; 0xcbe <stepperControl+0x46>
	else if (steps < 0) DIRECTION = -1; //negative or counter-clock-wise
     cb0:	c9 2e       	mov	r12, r25
     cb2:	cc 0c       	add	r12, r12
     cb4:	cc 08       	sbc	r12, r12
     cb6:	0c 2c       	mov	r0, r12
     cb8:	00 0c       	add	r0, r0
     cba:	dd 08       	sbc	r13, r13
     cbc:	03 c0       	rjmp	.+6      	; 0xcc4 <stepperControl+0x4c>
	uint8_t differential = maxDelay - minDelay;
	uint8_t delay = maxDelay;
	int PORTAREGSet = *stepperIt;
	int DIRECTION = 1;
	uint16_t absSteps = abs(steps); //compute absolute value now to save computations in "for" loop
	if (steps > 0) DIRECTION = 1;// positive or clock-wise
     cbe:	cc 24       	eor	r12, r12
     cc0:	c3 94       	inc	r12
     cc2:	d1 2c       	mov	r13, r1
	else if (steps < 0) DIRECTION = -1; //negative or counter-clock-wise
	else DIRECTION=0;		
	if(absSteps<(differential*2)){ //if there isn't enough time for stepper to fully ramp up to full speed
     cc4:	b0 e1       	ldi	r27, 0x10	; 16
     cc6:	8b 16       	cp	r8, r27
     cc8:	91 04       	cpc	r9, r1
     cca:	40 f4       	brcc	.+16     	; 0xcdc <stepperControl+0x64>
		minDelay=maxDelay-absSteps/2;
     ccc:	94 01       	movw	r18, r8
     cce:	36 95       	lsr	r19
     cd0:	27 95       	ror	r18
     cd2:	02 2f       	mov	r16, r18
     cd4:	3f e0       	ldi	r19, 0x0F	; 15
     cd6:	53 2f       	mov	r21, r19
     cd8:	52 1b       	sub	r21, r18
     cda:	02 c0       	rjmp	.+4      	; 0xce0 <stepperControl+0x68>
	/*function variable declarations*/
	int i=0; //step quantity
	int k=0; //timer counter
	uint8_t maxDelay = 15; //20ms corresponds to 50 steps per second
	uint8_t minDelay = 7; //5ms corresponds to 200 steps per second; or 1 revolution per second
	uint8_t differential = maxDelay - minDelay;
     cdc:	08 e0       	ldi	r16, 0x08	; 8
void stepperControl(int steps,int *stepperPos, int *stepperIt){
	/*function variable declarations*/
	int i=0; //step quantity
	int k=0; //timer counter
	uint8_t maxDelay = 15; //20ms corresponds to 50 steps per second
	uint8_t minDelay = 7; //5ms corresponds to 200 steps per second; or 1 revolution per second
     cde:	57 e0       	ldi	r21, 0x07	; 7
	if(absSteps<(differential*2)){ //if there isn't enough time for stepper to fully ramp up to full speed
		minDelay=maxDelay-absSteps/2;
		differential = maxDelay - minDelay;
	}
	/*perform one stepper cycle before "for" loop so there is no wasted delay at beginning or end of stepper motion*/
	PORTAREGSet+=DIRECTION;
     ce0:	ec 0d       	add	r30, r12
     ce2:	fd 1d       	adc	r31, r13
	if(PORTAREGSet==4)PORTAREGSet=0;
     ce4:	e4 30       	cpi	r30, 0x04	; 4
     ce6:	f1 05       	cpc	r31, r1
     ce8:	39 f0       	breq	.+14     	; 0xcf8 <stepperControl+0x80>
	if(PORTAREGSet==-1)PORTAREGSet=3;
     cea:	ef 3f       	cpi	r30, 0xFF	; 255
     cec:	cf ef       	ldi	r28, 0xFF	; 255
     cee:	fc 07       	cpc	r31, r28
     cf0:	29 f4       	brne	.+10     	; 0xcfc <stepperControl+0x84>
     cf2:	e3 e0       	ldi	r30, 0x03	; 3
     cf4:	f0 e0       	ldi	r31, 0x00	; 0
     cf6:	02 c0       	rjmp	.+4      	; 0xcfc <stepperControl+0x84>
		minDelay=maxDelay-absSteps/2;
		differential = maxDelay - minDelay;
	}
	/*perform one stepper cycle before "for" loop so there is no wasted delay at beginning or end of stepper motion*/
	PORTAREGSet+=DIRECTION;
	if(PORTAREGSet==4)PORTAREGSet=0;
     cf8:	e0 e0       	ldi	r30, 0x00	; 0
     cfa:	f0 e0       	ldi	r31, 0x00	; 0
	if(PORTAREGSet==-1)PORTAREGSet=3;
	TCCR0B |= _BV(CS01); //clock pre-scalar (clk/8)
     cfc:	25 b5       	in	r18, 0x25	; 37
     cfe:	22 60       	ori	r18, 0x02	; 2
     d00:	25 bd       	out	0x25, r18	; 37
	TCNT0=0x00; //set timer equal to zero; note timer is already counting based on clock prescalar
     d02:	16 bc       	out	0x26, r1	; 38
	if ((TIFR0 & 0x01) == 0x01)TIFR0|=0x01; //if TOV0 flag is set to 1, reset it to zero
     d04:	a8 99       	sbic	0x15, 0	; 21
     d06:	a8 9a       	sbi	0x15, 0	; 21
	PORTA = stepperSigOrd[PORTAREGSet];//initialize first step
     d08:	df 01       	movw	r26, r30
     d0a:	aa 0f       	add	r26, r26
     d0c:	bb 1f       	adc	r27, r27
     d0e:	a6 5f       	subi	r26, 0xF6	; 246
     d10:	be 4f       	sbci	r27, 0xFE	; 254
     d12:	2c 91       	ld	r18, X
     d14:	22 b9       	out	0x02, r18	; 2
	for(i=2;i<=absSteps;i++){	
     d16:	d2 e0       	ldi	r29, 0x02	; 2
     d18:	8d 16       	cp	r8, r29
     d1a:	91 04       	cpc	r9, r1
     d1c:	08 f4       	brcc	.+2      	; 0xd20 <stepperControl+0xa8>
     d1e:	42 c0       	rjmp	.+132    	; 0xda4 <stepperControl+0x12c>
     d20:	4f e0       	ldi	r20, 0x0F	; 15
     d22:	a2 e0       	ldi	r26, 0x02	; 2
     d24:	b0 e0       	ldi	r27, 0x00	; 0
		//ramp up
		if((absSteps-i) > (differential+1)){ //the "added" one causes it to slow down one step early
     d26:	10 e0       	ldi	r17, 0x00	; 0
     d28:	0f 5f       	subi	r16, 0xFF	; 255
     d2a:	1f 4f       	sbci	r17, 0xFF	; 255
     d2c:	94 01       	movw	r18, r8
     d2e:	2a 1b       	sub	r18, r26
     d30:	3b 0b       	sbc	r19, r27
     d32:	02 17       	cp	r16, r18
     d34:	13 07       	cpc	r17, r19
     d36:	20 f4       	brcc	.+8      	; 0xd40 <stepperControl+0xc8>
			if(delay>minDelay)delay -= 1;
     d38:	54 17       	cp	r21, r20
     d3a:	30 f4       	brcc	.+12     	; 0xd48 <stepperControl+0xd0>
     d3c:	41 50       	subi	r20, 0x01	; 1
     d3e:	07 c0       	rjmp	.+14     	; 0xd4e <stepperControl+0xd6>
			else delay = minDelay;
		} else { //ramp down if the amount of steps left are less than the differential between max and min delays
			if(delay<maxDelay)delay += 1;
     d40:	4f 30       	cpi	r20, 0x0F	; 15
     d42:	20 f4       	brcc	.+8      	; 0xd4c <stepperControl+0xd4>
     d44:	4f 5f       	subi	r20, 0xFF	; 255
     d46:	03 c0       	rjmp	.+6      	; 0xd4e <stepperControl+0xd6>
	PORTA = stepperSigOrd[PORTAREGSet];//initialize first step
	for(i=2;i<=absSteps;i++){	
		//ramp up
		if((absSteps-i) > (differential+1)){ //the "added" one causes it to slow down one step early
			if(delay>minDelay)delay -= 1;
			else delay = minDelay;
     d48:	45 2f       	mov	r20, r21
     d4a:	01 c0       	rjmp	.+2      	; 0xd4e <stepperControl+0xd6>
		} else { //ramp down if the amount of steps left are less than the differential between max and min delays
			if(delay<maxDelay)delay += 1;
			else delay = maxDelay;
     d4c:	4f e0       	ldi	r20, 0x0F	; 15
		}
		/*determine direction and then iterate through stepper signals in correct direction*/
		PORTAREGSet+=DIRECTION;
     d4e:	ec 0d       	add	r30, r12
     d50:	fd 1d       	adc	r31, r13
		if(PORTAREGSet==4)PORTAREGSet=0;
     d52:	e4 30       	cpi	r30, 0x04	; 4
     d54:	f1 05       	cpc	r31, r1
     d56:	39 f0       	breq	.+14     	; 0xd66 <stepperControl+0xee>
		if(PORTAREGSet==-1)PORTAREGSet=3;
     d58:	ef 3f       	cpi	r30, 0xFF	; 255
     d5a:	2f ef       	ldi	r18, 0xFF	; 255
     d5c:	f2 07       	cpc	r31, r18
     d5e:	29 f4       	brne	.+10     	; 0xd6a <stepperControl+0xf2>
     d60:	e3 e0       	ldi	r30, 0x03	; 3
     d62:	f0 e0       	ldi	r31, 0x00	; 0
     d64:	02 c0       	rjmp	.+4      	; 0xd6a <stepperControl+0xf2>
			if(delay<maxDelay)delay += 1;
			else delay = maxDelay;
		}
		/*determine direction and then iterate through stepper signals in correct direction*/
		PORTAREGSet+=DIRECTION;
		if(PORTAREGSet==4)PORTAREGSet=0;
     d66:	e0 e0       	ldi	r30, 0x00	; 0
     d68:	f0 e0       	ldi	r31, 0x00	; 0
		if(PORTAREGSet==-1)PORTAREGSet=3;
		k=0; //reset counter for timer
		while (k<(delay*4)){ //iterate through given count; multiplied by four as it is now a 250ms timer
     d6a:	24 2f       	mov	r18, r20
     d6c:	30 e0       	ldi	r19, 0x00	; 0
     d6e:	22 0f       	add	r18, r18
     d70:	33 1f       	adc	r19, r19
     d72:	22 0f       	add	r18, r18
     d74:	33 1f       	adc	r19, r19
		}
		/*determine direction and then iterate through stepper signals in correct direction*/
		PORTAREGSet+=DIRECTION;
		if(PORTAREGSet==4)PORTAREGSet=0;
		if(PORTAREGSet==-1)PORTAREGSet=3;
		k=0; //reset counter for timer
     d76:	60 e0       	ldi	r22, 0x00	; 0
     d78:	70 e0       	ldi	r23, 0x00	; 0
		while (k<(delay*4)){ //iterate through given count; multiplied by four as it is now a 250ms timer
     d7a:	05 c0       	rjmp	.+10     	; 0xd86 <stepperControl+0x10e>
			if ((TIFR0 & 0x01) == 0x01){ //if overflow has occurred in counter
     d7c:	a8 9b       	sbis	0x15, 0	; 21
     d7e:	03 c0       	rjmp	.+6      	; 0xd86 <stepperControl+0x10e>
				TIFR0|=0x01; //reset overflow flag by writing a 1 to TOV2 bit;equivalent => TIFR2 |= _BV(TOV2)
     d80:	a8 9a       	sbi	0x15, 0	; 21
				k++;
     d82:	6f 5f       	subi	r22, 0xFF	; 255
     d84:	7f 4f       	sbci	r23, 0xFF	; 255
		/*determine direction and then iterate through stepper signals in correct direction*/
		PORTAREGSet+=DIRECTION;
		if(PORTAREGSet==4)PORTAREGSet=0;
		if(PORTAREGSet==-1)PORTAREGSet=3;
		k=0; //reset counter for timer
		while (k<(delay*4)){ //iterate through given count; multiplied by four as it is now a 250ms timer
     d86:	62 17       	cp	r22, r18
     d88:	73 07       	cpc	r23, r19
     d8a:	c4 f3       	brlt	.-16     	; 0xd7c <stepperControl+0x104>
			if ((TIFR0 & 0x01) == 0x01){ //if overflow has occurred in counter
				TIFR0|=0x01; //reset overflow flag by writing a 1 to TOV2 bit;equivalent => TIFR2 |= _BV(TOV2)
				k++;
			}
		}
		PORTA = stepperSigOrd[PORTAREGSet];//move stepper after first delay
     d8c:	9f 01       	movw	r18, r30
     d8e:	22 0f       	add	r18, r18
     d90:	33 1f       	adc	r19, r19
     d92:	26 5f       	subi	r18, 0xF6	; 246
     d94:	3e 4f       	sbci	r19, 0xFE	; 254
     d96:	e9 01       	movw	r28, r18
     d98:	28 81       	ld	r18, Y
     d9a:	22 b9       	out	0x02, r18	; 2
	if(PORTAREGSet==-1)PORTAREGSet=3;
	TCCR0B |= _BV(CS01); //clock pre-scalar (clk/8)
	TCNT0=0x00; //set timer equal to zero; note timer is already counting based on clock prescalar
	if ((TIFR0 & 0x01) == 0x01)TIFR0|=0x01; //if TOV0 flag is set to 1, reset it to zero
	PORTA = stepperSigOrd[PORTAREGSet];//initialize first step
	for(i=2;i<=absSteps;i++){	
     d9c:	11 96       	adiw	r26, 0x01	; 1
     d9e:	8a 16       	cp	r8, r26
     da0:	9b 06       	cpc	r9, r27
     da2:	20 f6       	brcc	.-120    	; 0xd2c <stepperControl+0xb4>
				k++;
			}
		}
		PORTA = stepperSigOrd[PORTAREGSet];//move stepper after first delay
	}
	TCCR0B&=0b11111000; //disable timer 0
     da4:	25 b5       	in	r18, 0x25	; 37
     da6:	28 7f       	andi	r18, 0xF8	; 248
     da8:	25 bd       	out	0x25, r18	; 37
	*stepperIt=PORTAREGSet;//set value of current iteration to variable address of stepperIteration Variable
     daa:	d5 01       	movw	r26, r10
     dac:	ed 93       	st	X+, r30
     dae:	fc 93       	st	X, r31
	*stepperPos -= steps; //iterating through steps positively is clockwise; however, when moving clockwise position is decremented
	*stepperPos %= 200; //represents 200 (0->199) steps of stepper positioning in a circle
     db0:	e7 01       	movw	r28, r14
     db2:	28 81       	ld	r18, Y
     db4:	39 81       	ldd	r19, Y+1	; 0x01
     db6:	f9 01       	movw	r30, r18
     db8:	e8 1b       	sub	r30, r24
     dba:	f9 0b       	sbc	r31, r25
     dbc:	cf 01       	movw	r24, r30
     dbe:	68 ec       	ldi	r22, 0xC8	; 200
     dc0:	70 e0       	ldi	r23, 0x00	; 0
     dc2:	72 d6       	rcall	.+3300   	; 0x1aa8 <__divmodhi4>
     dc4:	99 83       	std	Y+1, r25	; 0x01
     dc6:	88 83       	st	Y, r24
	return; //returns nothing
}
     dc8:	df 91       	pop	r29
     dca:	cf 91       	pop	r28
     dcc:	1f 91       	pop	r17
     dce:	0f 91       	pop	r16
     dd0:	ff 90       	pop	r15
     dd2:	ef 90       	pop	r14
     dd4:	df 90       	pop	r13
     dd6:	cf 90       	pop	r12
     dd8:	bf 90       	pop	r11
     dda:	af 90       	pop	r10
     ddc:	9f 90       	pop	r9
     dde:	8f 90       	pop	r8
     de0:	08 95       	ret

00000de2 <stepperHome>:
////--ODA: CHANGE SO NO INTERRUPT IS USED FOR HALL EFFECT, simply check for voltage on an input pin
void stepperHome(int *stepperPos, int *stepperIt){
     de2:	ef 92       	push	r14
     de4:	ff 92       	push	r15
     de6:	0f 93       	push	r16
     de8:	1f 93       	push	r17
     dea:	cf 93       	push	r28
     dec:	df 93       	push	r29
     dee:	8c 01       	movw	r16, r24
     df0:	7b 01       	movw	r14, r22
	uint8_t delay = 30; //20ms corresponds to 50 steps per second
	int i=0;
	int x=0;
	uint8_t offset=2; //arbitrary at this point
	uint8_t DIRECTION=1; //1 for clockwise, -1 for counter-clockwise
	PORTA=0x00;
     df2:	12 b8       	out	0x02, r1	; 2
	return; //returns nothing
}
////--ODA: CHANGE SO NO INTERRUPT IS USED FOR HALL EFFECT, simply check for voltage on an input pin
void stepperHome(int *stepperPos, int *stepperIt){
	uint8_t delay = 30; //20ms corresponds to 50 steps per second
	int i=0;
     df4:	c0 e0       	ldi	r28, 0x00	; 0
     df6:	d0 e0       	ldi	r29, 0x00	; 0
	int x=0;
	uint8_t offset=2; //arbitrary at this point
	uint8_t DIRECTION=1; //1 for clockwise, -1 for counter-clockwise
	PORTA=0x00;
	while (PINA&0b10000000){ //Active low for hall effect sensor triggering
     df8:	10 c0       	rjmp	.+32     	; 0xe1a <stepperHome+0x38>
		PORTA = stepperSigOrd[i];
     dfa:	fe 01       	movw	r30, r28
     dfc:	ee 0f       	add	r30, r30
     dfe:	ff 1f       	adc	r31, r31
     e00:	e6 5f       	subi	r30, 0xF6	; 246
     e02:	fe 4f       	sbci	r31, 0xFE	; 254
     e04:	80 81       	ld	r24, Z
     e06:	82 b9       	out	0x02, r24	; 2
		mTimer0(delay);
     e08:	8e e1       	ldi	r24, 0x1E	; 30
     e0a:	90 e0       	ldi	r25, 0x00	; 0
     e0c:	12 df       	rcall	.-476    	; 0xc32 <mTimer0>
		i++;
     e0e:	21 96       	adiw	r28, 0x01	; 1
		if (i==4)i=0;
     e10:	c4 30       	cpi	r28, 0x04	; 4
     e12:	d1 05       	cpc	r29, r1
     e14:	11 f4       	brne	.+4      	; 0xe1a <stepperHome+0x38>
     e16:	c0 e0       	ldi	r28, 0x00	; 0
     e18:	d0 e0       	ldi	r29, 0x00	; 0
	int i=0;
	int x=0;
	uint8_t offset=2; //arbitrary at this point
	uint8_t DIRECTION=1; //1 for clockwise, -1 for counter-clockwise
	PORTA=0x00;
	while (PINA&0b10000000){ //Active low for hall effect sensor triggering
     e1a:	07 99       	sbic	0x00, 7	; 0
     e1c:	ee cf       	rjmp	.-36     	; 0xdfa <stepperHome+0x18>
	}
	i--;
	/*Insert code here to compensate for offset */
	for (x=0;x<offset;x++){
		i+=DIRECTION;
		if (i==4)i=0;
     e1e:	c4 30       	cpi	r28, 0x04	; 4
     e20:	d1 05       	cpc	r29, r1
     e22:	a9 f1       	breq	.+106    	; 0xe8e <stepperHome+0xac>
		if (i==-1)i=3;
     e24:	cf 3f       	cpi	r28, 0xFF	; 255
     e26:	8f ef       	ldi	r24, 0xFF	; 255
     e28:	d8 07       	cpc	r29, r24
     e2a:	41 f1       	breq	.+80     	; 0xe7c <stepperHome+0x9a>
		PORTA = stepperSigOrd[i];
     e2c:	fe 01       	movw	r30, r28
     e2e:	ee 0f       	add	r30, r30
     e30:	ff 1f       	adc	r31, r31
     e32:	e6 5f       	subi	r30, 0xF6	; 246
     e34:	fe 4f       	sbci	r31, 0xFE	; 254
     e36:	80 81       	ld	r24, Z
     e38:	82 b9       	out	0x02, r24	; 2
		mTimer0(delay);
     e3a:	8e e1       	ldi	r24, 0x1E	; 30
     e3c:	90 e0       	ldi	r25, 0x00	; 0
     e3e:	f9 de       	rcall	.-526    	; 0xc32 <mTimer0>
		if (i==4)i=0;
	}
	i--;
	/*Insert code here to compensate for offset */
	for (x=0;x<offset;x++){
		i+=DIRECTION;
     e40:	21 96       	adiw	r28, 0x01	; 1
		if (i==4)i=0;
     e42:	c4 30       	cpi	r28, 0x04	; 4
     e44:	d1 05       	cpc	r29, r1
     e46:	39 f0       	breq	.+14     	; 0xe56 <stepperHome+0x74>
		if (i==-1)i=3;
     e48:	cf 3f       	cpi	r28, 0xFF	; 255
     e4a:	ef ef       	ldi	r30, 0xFF	; 255
     e4c:	de 07       	cpc	r29, r30
     e4e:	29 f4       	brne	.+10     	; 0xe5a <stepperHome+0x78>
     e50:	c3 e0       	ldi	r28, 0x03	; 3
     e52:	d0 e0       	ldi	r29, 0x00	; 0
     e54:	02 c0       	rjmp	.+4      	; 0xe5a <stepperHome+0x78>
	}
	i--;
	/*Insert code here to compensate for offset */
	for (x=0;x<offset;x++){
		i+=DIRECTION;
		if (i==4)i=0;
     e56:	c0 e0       	ldi	r28, 0x00	; 0
     e58:	d0 e0       	ldi	r29, 0x00	; 0
		if (i==-1)i=3;
		PORTA = stepperSigOrd[i];
     e5a:	fe 01       	movw	r30, r28
     e5c:	ee 0f       	add	r30, r30
     e5e:	ff 1f       	adc	r31, r31
     e60:	e6 5f       	subi	r30, 0xF6	; 246
     e62:	fe 4f       	sbci	r31, 0xFE	; 254
     e64:	80 81       	ld	r24, Z
     e66:	82 b9       	out	0x02, r24	; 2
		mTimer0(delay);
     e68:	8e e1       	ldi	r24, 0x1E	; 30
     e6a:	90 e0       	ldi	r25, 0x00	; 0
     e6c:	e2 de       	rcall	.-572    	; 0xc32 <mTimer0>
	}
	*stepperIt = i;//set current stepper iteration
     e6e:	f7 01       	movw	r30, r14
     e70:	d1 83       	std	Z+1, r29	; 0x01
     e72:	c0 83       	st	Z, r28
	*stepperPos=0; //base stepper position (on black)
     e74:	f8 01       	movw	r30, r16
     e76:	11 82       	std	Z+1, r1	; 0x01
     e78:	10 82       	st	Z, r1
}
     e7a:	12 c0       	rjmp	.+36     	; 0xea0 <stepperHome+0xbe>
	/*Insert code here to compensate for offset */
	for (x=0;x<offset;x++){
		i+=DIRECTION;
		if (i==4)i=0;
		if (i==-1)i=3;
		PORTA = stepperSigOrd[i];
     e7c:	80 91 10 01 	lds	r24, 0x0110	; 0x800110 <stepperSigOrd+0x6>
		mTimer0(delay);
     e80:	82 b9       	out	0x02, r24	; 2
     e82:	8e e1       	ldi	r24, 0x1E	; 30
     e84:	90 e0       	ldi	r25, 0x00	; 0
     e86:	d5 de       	rcall	.-598    	; 0xc32 <mTimer0>
	}
	i--;
	/*Insert code here to compensate for offset */
	for (x=0;x<offset;x++){
		i+=DIRECTION;
		if (i==4)i=0;
     e88:	c0 e0       	ldi	r28, 0x00	; 0
     e8a:	d0 e0       	ldi	r29, 0x00	; 0
     e8c:	e6 cf       	rjmp	.-52     	; 0xe5a <stepperHome+0x78>
		if (i==-1)i=3;
		PORTA = stepperSigOrd[i];
     e8e:	80 91 0a 01 	lds	r24, 0x010A	; 0x80010a <stepperSigOrd>
		mTimer0(delay);
     e92:	82 b9       	out	0x02, r24	; 2
     e94:	8e e1       	ldi	r24, 0x1E	; 30
     e96:	90 e0       	ldi	r25, 0x00	; 0
     e98:	cc de       	rcall	.-616    	; 0xc32 <mTimer0>
		if (i==4)i=0;
	}
	i--;
	/*Insert code here to compensate for offset */
	for (x=0;x<offset;x++){
		i+=DIRECTION;
     e9a:	c1 e0       	ldi	r28, 0x01	; 1
     e9c:	d0 e0       	ldi	r29, 0x00	; 0
     e9e:	dd cf       	rjmp	.-70     	; 0xe5a <stepperHome+0x78>
		PORTA = stepperSigOrd[i];
		mTimer0(delay);
	}
	*stepperIt = i;//set current stepper iteration
	*stepperPos=0; //base stepper position (on black)
}
     ea0:	df 91       	pop	r29
     ea2:	cf 91       	pop	r28
     ea4:	1f 91       	pop	r17
     ea6:	0f 91       	pop	r16
     ea8:	ff 90       	pop	r15
     eaa:	ef 90       	pop	r14
     eac:	08 95       	ret

00000eae <setupPWM>:
/*initializing the dc motor*/
void setupPWM(int motorDuty){
     eae:	bc 01       	movw	r22, r24
	uint8_t dutyCycle = 0;
	/*DC MOTOR PWM SETUP (runs conveyor)*/
	TCCR2A |= _BV(WGM20) | _BV(WGM21) | _BV(COM2A1); /*set to Fast PWM; OCRx updated at TOP; TOV set on MAX; Clear OC0A on Compare Match, set OC0A at TOP*/
     eb0:	e0 eb       	ldi	r30, 0xB0	; 176
     eb2:	f0 e0       	ldi	r31, 0x00	; 0
     eb4:	80 81       	ld	r24, Z
     eb6:	83 68       	ori	r24, 0x83	; 131
     eb8:	80 83       	st	Z, r24
	TCCR2B |= _BV(CS22);//Set clock pre-scalar (8MHz*1/64): 488Hz measured on PB4*
     eba:	e1 eb       	ldi	r30, 0xB1	; 177
     ebc:	f0 e0       	ldi	r31, 0x00	; 0
     ebe:	80 81       	ld	r24, Z
     ec0:	84 60       	ori	r24, 0x04	; 4
     ec2:	80 83       	st	Z, r24
	dutyCycle = motorDuty*2.55;
     ec4:	07 2e       	mov	r0, r23
     ec6:	00 0c       	add	r0, r0
     ec8:	88 0b       	sbc	r24, r24
     eca:	99 0b       	sbc	r25, r25
     ecc:	fe d4       	rcall	.+2556   	; 0x18ca <__floatsisf>
     ece:	23 e3       	ldi	r18, 0x33	; 51
     ed0:	33 e3       	ldi	r19, 0x33	; 51
     ed2:	43 e2       	ldi	r20, 0x23	; 35
     ed4:	50 e4       	ldi	r21, 0x40	; 64
     ed6:	5d d5       	rcall	.+2746   	; 0x1992 <__mulsf3>
     ed8:	ca d4       	rcall	.+2452   	; 0x186e <__fixunssfsi>
	OCR2A = dutyCycle;//set duty cycle/start motor
     eda:	60 93 b3 00 	sts	0x00B3, r22	; 0x8000b3 <__TEXT_REGION_LENGTH__+0x7e00b3>
	PORTE &= 0xF0; //Apply Vcc brake to conveyor
     ede:	8e b1       	in	r24, 0x0e	; 14
     ee0:	80 7f       	andi	r24, 0xF0	; 240
     ee2:	8e b9       	out	0x0e, r24	; 14
     ee4:	08 95       	ret

00000ee6 <setupISR>:
void setupISR(void){
	/*INT(7:4) => PE(7:4); INT(3:0) => PD(3:0)*/
	//Ex: rising edge on INT2: EICRA |= _BV(ISC21) | _BV(ISC20);
	//Ex: falling edge on INT2: EICRA |= _BV(ISC21);
	//see ISR routines interrupt functions
	EIMSK |= _BV(INT7) |_BV(INT6)|_BV(INT5)|_BV(INT4)|_BV(INT3)|_BV(INT2);//initialize INT 7,6,3,2
     ee6:	8d b3       	in	r24, 0x1d	; 29
     ee8:	8c 6f       	ori	r24, 0xFC	; 252
     eea:	8d bb       	out	0x1d, r24	; 29
	EICRA |= _BV(ISC21) | _BV(ISC20) | _BV(ISC31);
     eec:	e9 e6       	ldi	r30, 0x69	; 105
     eee:	f0 e0       	ldi	r31, 0x00	; 0
     ef0:	80 81       	ld	r24, Z
     ef2:	80 6b       	ori	r24, 0xB0	; 176
     ef4:	80 83       	st	Z, r24
	//EICRA |= 0b10110000; //rising edge trigger (active low) for OI (INT2); falling edge detection (active low) for IN (INT3)
	EICRB |= _BV(ISC71) | _BV(ISC61) | _BV(ISC60) | _BV(ISC51) | _BV(ISC41);
     ef6:	ea e6       	ldi	r30, 0x6A	; 106
     ef8:	f0 e0       	ldi	r31, 0x00	; 0
     efa:	80 81       	ld	r24, Z
     efc:	8a 6b       	ori	r24, 0xBA	; 186
     efe:	80 83       	st	Z, r24
	PCICR |= _BV(PCIE0); // Enable PC Interrupt
     f00:	e8 e6       	ldi	r30, 0x68	; 104
     f02:	f0 e0       	ldi	r31, 0x00	; 0
     f04:	80 81       	ld	r24, Z
     f06:	81 60       	ori	r24, 0x01	; 1
     f08:	80 83       	st	Z, r24
	PCMSK0 |= 0b11101110; // Select PCINT7, PCINT6, PCINT5, PCINT3, PCINT2, PCINT1
     f0a:	eb e6       	ldi	r30, 0x6B	; 107
     f0c:	f0 e0       	ldi	r31, 0x00	; 0
     f0e:	80 81       	ld	r24, Z
     f10:	8e 6e       	ori	r24, 0xEE	; 238
     f12:	80 83       	st	Z, r24
     f14:	08 95       	ret

00000f16 <setupADC>:
	//EICRB |= 0b00001011; //rising edge trigger (active high) for OR (INT6); falling edge detection (active low) for EX (INT7)
}
void setupADC(void){
	ADCSRA |= _BV(ADEN) | _BV(ADIE) | _BV(ADPS2) | _BV(ADPS0); //adc scalar = 32;
     f16:	ea e7       	ldi	r30, 0x7A	; 122
     f18:	f0 e0       	ldi	r31, 0x00	; 0
     f1a:	80 81       	ld	r24, Z
     f1c:	8d 68       	ori	r24, 0x8D	; 141
     f1e:	80 83       	st	Z, r24
	ADMUX |= _BV(REFS0) | _BV(MUX0); //AVcc reference (3.3V);read from ADC 1;output left-adjusted
     f20:	ec e7       	ldi	r30, 0x7C	; 124
     f22:	f0 e0       	ldi	r31, 0x00	; 0
     f24:	80 81       	ld	r24, Z
     f26:	81 64       	ori	r24, 0x41	; 65
     f28:	80 83       	st	Z, r24
	ADMUX &= 0b11100001; //reading from PF1 (ADC1); ADC0 works, but MCU has thermistor on pin...
     f2a:	80 81       	ld	r24, Z
     f2c:	81 7e       	andi	r24, 0xE1	; 225
     f2e:	80 83       	st	Z, r24
     f30:	08 95       	ret

00000f32 <motorControl>:
}
void motorControl(int s, uint8_t d){//note that DC motor driver expects inverted bits
	uint8_t dutyCycle = 0;
	static uint8_t oldDirection;
	if((oldDirection & 0b00000011) != d){ //if current direction doesn't match new direction
     f32:	26 2f       	mov	r18, r22
     f34:	30 e0       	ldi	r19, 0x00	; 0
     f36:	40 91 82 05 	lds	r20, 0x0582	; 0x800582 <oldDirection.2247>
     f3a:	43 70       	andi	r20, 0x03	; 3
     f3c:	50 e0       	ldi	r21, 0x00	; 0
     f3e:	42 17       	cp	r20, r18
     f40:	53 07       	cpc	r21, r19
     f42:	81 f0       	breq	.+32     	; 0xf64 <motorControl+0x32>
		PORTE &= 0b11110000; //apply Vcc Brake
     f44:	4e b1       	in	r20, 0x0e	; 14
     f46:	40 7f       	andi	r20, 0xF0	; 240
     f48:	4e b9       	out	0x0e, r20	; 14
		PORTE |= ((~d & 0b11) << 2); //start motor in specified direction
     f4a:	4e b1       	in	r20, 0x0e	; 14
     f4c:	20 95       	com	r18
     f4e:	30 95       	com	r19
     f50:	23 70       	andi	r18, 0x03	; 3
     f52:	33 27       	eor	r19, r19
     f54:	22 0f       	add	r18, r18
     f56:	33 1f       	adc	r19, r19
     f58:	22 0f       	add	r18, r18
     f5a:	33 1f       	adc	r19, r19
     f5c:	24 2b       	or	r18, r20
     f5e:	2e b9       	out	0x0e, r18	; 14
		oldDirection=d;
     f60:	60 93 82 05 	sts	0x0582, r22	; 0x800582 <oldDirection.2247>
	}
	dutyCycle = s*2.55;
     f64:	bc 01       	movw	r22, r24
     f66:	99 0f       	add	r25, r25
     f68:	88 0b       	sbc	r24, r24
     f6a:	99 0b       	sbc	r25, r25
     f6c:	ae d4       	rcall	.+2396   	; 0x18ca <__floatsisf>
     f6e:	23 e3       	ldi	r18, 0x33	; 51
     f70:	33 e3       	ldi	r19, 0x33	; 51
     f72:	43 e2       	ldi	r20, 0x23	; 35
     f74:	50 e4       	ldi	r21, 0x40	; 64
     f76:	0d d5       	rcall	.+2586   	; 0x1992 <__mulsf3>
     f78:	7a d4       	rcall	.+2292   	; 0x186e <__fixunssfsi>
	OCR0A = dutyCycle;//set duty cycle
     f7a:	67 bd       	out	0x27, r22	; 39
     f7c:	08 95       	ret

00000f7e <main>:
volatile uint16_t blkCali = 990;
volatile uint16_t whtCali = 960;
volatile uint16_t almCali = 300;
volatile uint16_t stlCali = 700;
/* Main Routine */
int main(int argc, char *argv[]){
     f7e:	cf 93       	push	r28
     f80:	df 93       	push	r29
     f82:	00 d0       	rcall	.+0      	; 0xf84 <main+0x6>
     f84:	00 d0       	rcall	.+0      	; 0xf86 <main+0x8>
     f86:	cd b7       	in	r28, 0x3d	; 61
     f88:	de b7       	in	r29, 0x3e	; 62
	CLKPR = _BV(CLKPCE);/*initialize clock to 8MHz*/
     f8a:	e1 e6       	ldi	r30, 0x61	; 97
     f8c:	f0 e0       	ldi	r31, 0x00	; 0
     f8e:	80 e8       	ldi	r24, 0x80	; 128
     f90:	80 83       	st	Z, r24
	CLKPR = 0;
     f92:	10 82       	st	Z, r1
	/*User Variables*/
	int i=0x00; //solely used in for loops
	int stepperPosition = 0x00; //stepper position w.r.t. 360 degrees (circle); steps 0-200 => degrees 0-360
     f94:	1a 82       	std	Y+2, r1	; 0x02
     f96:	19 82       	std	Y+1, r1	; 0x01
	int stepperIteration = 0x00;
     f98:	1c 82       	std	Y+4, r1	; 0x04
     f9a:	1b 82       	std	Y+3, r1	; 0x03
	//int OIEX_Count = 0x00; //count of objects between optical sensors 1 and 3 (Exit sensor)
	//int OREX_Count = 0x00; //count of objects between optical sensors 2 and 3 (Exit sensor)
	int RLEX_Count = 0x00; //count of objects that have had their reflectivity measured, but not reached sensor 3 (EX)
	uint8_t tempFerrous=0;
	/*initializations*/
	cli(); //disable interrupts
     f9c:	f8 94       	cli
	setupPWM(CONVEYOR_SPEED); //DC Motor PWM setup;
     f9e:	83 e2       	ldi	r24, 0x23	; 35
     fa0:	90 e0       	ldi	r25, 0x00	; 0
     fa2:	85 df       	rcall	.-246    	; 0xeae <setupPWM>
	setupISR();
     fa4:	a0 df       	rcall	.-192    	; 0xee6 <setupISR>
	setupADC();
     fa6:	b7 df       	rcall	.-146    	; 0xf16 <setupADC>
	i2cInit();	// I2C initialization
     fa8:	f7 dd       	rcall	.-1042   	; 0xb98 <i2cInit>
	SSD1306Init();	// OLED Initialization
     faa:	00 d4       	rcall	.+2048   	; 0x17ac <SSD1306Init>
	clear();	// Clear display buffer
     fac:	be db       	rcall	.-2180   	; 0x72a <clear>
	show();		// Send data/command to OLED
     fae:	c6 db       	rcall	.-2164   	; 0x73c <show>
     fb0:	c2 dc       	rcall	.-1660   	; 0x936 <drawRunning>
	drawRunning();
     fb2:	3d de       	rcall	.-902    	; 0xc2e <timer0Init>
     fb4:	39 de       	rcall	.-910    	; 0xc28 <timer1Init>
	timer0Init();
     fb6:	5d de       	rcall	.-838    	; 0xc72 <timer3Init>
     fb8:	8f e3       	ldi	r24, 0x3F	; 63
	timer1Init();
     fba:	81 b9       	out	0x01, r24	; 1
     fbc:	80 e1       	ldi	r24, 0x10	; 16
	timer3Init();
     fbe:	84 b9       	out	0x04, r24	; 4
     fc0:	8f ef       	ldi	r24, 0xFF	; 255
	/*Port I/O Definitions*/
	DDRA = 0x3F; /* Sets pins 5:0 on Port A to output: stepper motor control */
     fc2:	87 b9       	out	0x07, r24	; 7
     fc4:	83 ef       	ldi	r24, 0xF3	; 243
		/*stepper motor connections to MCU: PA5:0 = EN0, L1, L2, EN1, L3, L4*/
		/*Hall effect sensor on PA7*/
	DDRB = 0x10; /*controls dc motor: PB4=PWM signal*/
     fc6:	8a b9       	out	0x0a, r24	; 10
     fc8:	1f e0       	ldi	r17, 0x0F	; 15
	DDRC = 0xFF; //LEDs Debugging
     fca:	1d b9       	out	0x0d, r17	; 13
     fcc:	10 ba       	out	0x10, r1	; 16
	DDRD = 0xF3; //upper nibble for on-board bi-color LEDs, interrupts on lower nibble	PORTD3:0=INT3:0
     fce:	85 b1       	in	r24, 0x05	; 5
     fd0:	8e 6e       	ori	r24, 0xEE	; 238
	DDRE = 0x0F; /*interrupts on upper nibble;PE3:0={INA,INB,ENA,ENB}*/
     fd2:	85 b9       	out	0x05, r24	; 5
     fd4:	8e b1       	in	r24, 0x0e	; 14
	DDRF = 0x00; /*PF1=ADC1 pin*/	
     fd6:	80 63       	ori	r24, 0x30	; 48
	PORTB |= _BV(PB7) | _BV(PB6) | _BV(PB5)|_BV(PB3)|_BV(PB2)|_BV(PB1);//menu code
     fd8:	8e b9       	out	0x0e, r24	; 14
     fda:	78 94       	sei
     fdc:	10 92 99 06 	sts	0x0699, r1	; 0x800699 <OR_Count+0x1>
	PORTE |= _BV(PE5) | _BV(PE4); //menu code
     fe0:	10 92 98 06 	sts	0x0698, r1	; 0x800698 <OR_Count>
	sei(); //enable interrupts
     fe4:	10 92 0d 06 	sts	0x060D, r1	; 0x80060d <RL_Count+0x1>
	/*initialize flags and counters */
	OR_Count=0;
     fe8:	10 92 0c 06 	sts	0x060C, r1	; 0x80060c <RL_Count>
     fec:	10 92 29 07 	sts	0x0729, r1	; 0x800729 <OI_Count+0x1>
	RL_Count=0;
     ff0:	10 92 28 07 	sts	0x0728, r1	; 0x800728 <OI_Count>
     ff4:	10 92 13 06 	sts	0x0613, r1	; 0x800613 <EX_Count+0x1>
	OI_Count=0;
     ff8:	10 92 12 06 	sts	0x0612, r1	; 0x800612 <EX_Count>
     ffc:	10 92 8b 05 	sts	0x058B, r1	; 0x80058b <OIRL_Count+0x1>
	EX_Count=0;
    1000:	10 92 8a 05 	sts	0x058A, r1	; 0x80058a <OIRL_Count>
    1004:	10 92 0f 06 	sts	0x060F, r1	; 0x80060f <inductiveFlag>
	OIRL_Count=0;
    1008:	10 92 2a 07 	sts	0x072A, r1	; 0x80072a <optExitFlag>
	falseInductFlag=0;
	inductiveFlag=0x00;
    100c:	10 92 11 06 	sts	0x0611, r1	; 0x800611 <ADCResultFlag>
	optExitFlag=0x00;
    1010:	8a ea       	ldi	r24, 0xAA	; 170
	ADCResultFlag=0x00;	
    1012:	88 b9       	out	0x08, r24	; 8
    1014:	80 ed       	ldi	r24, 0xD0	; 208
	//HallEffect=0x00; 
	//stepEarlyCount=0x00;
	PORTC=0b10101010;
    1016:	97 e0       	ldi	r25, 0x07	; 7
    1018:	0c de       	rcall	.-1000   	; 0xc32 <mTimer0>
	mTimer0(2000);
    101a:	18 b9       	out	0x08, r17	; 8
    101c:	80 ed       	ldi	r24, 0xD0	; 208
    101e:	97 e0       	ldi	r25, 0x07	; 7
	PORTC=0b00001111;
    1020:	08 de       	rcall	.-1008   	; 0xc32 <mTimer0>
	mTimer0(2000);
    1022:	be 01       	movw	r22, r28
    1024:	6d 5f       	subi	r22, 0xFD	; 253
    1026:	7f 4f       	sbci	r23, 0xFF	; 255
	stepperHome(&stepperPosition,&stepperIteration); //home stepper
    1028:	ce 01       	movw	r24, r28
    102a:	01 96       	adiw	r24, 0x01	; 1
    102c:	da de       	rcall	.-588    	; 0xde2 <stepperHome>
    102e:	62 e0       	ldi	r22, 0x02	; 2
    1030:	83 e2       	ldi	r24, 0x23	; 35
    1032:	90 e0       	ldi	r25, 0x00	; 0
    1034:	7e df       	rcall	.-260    	; 0xf32 <motorControl>
	motorControl(CONVEYOR_SPEED,DC_FORWARD);//conveyor forward (counter-clock-wise)
    1036:	41 2c       	mov	r4, r1
    1038:	55 24       	eor	r5, r5
    103a:	53 94       	inc	r5
    103c:	0f 2e       	mov	r0, r31
    103e:	f4 e6       	ldi	r31, 0x64	; 100
	OR_Count=0;
	RL_Count=0;
	OI_Count=0;
	EX_Count=0;
	OIRL_Count=0;
	falseInductFlag=0;
    1040:	6f 2e       	mov	r6, r31
	mTimer0(2000);
	stepperHome(&stepperPosition,&stepperIteration); //home stepper
	motorControl(CONVEYOR_SPEED,DC_FORWARD);//conveyor forward (counter-clock-wise)
	while(1){
		if(menuState==0){
			programPause = 1;
    1042:	71 2c       	mov	r7, r1
    1044:	f0 2d       	mov	r31, r0
				inductiveArray[RL_Count]=0x00; //reset inductive array to zero; otherwise, array will produce errors if more than 64 objects are sorted
				//sorting objects by reflectivity; using inductive on black and white plastics
				if (ADCAverage<300)typeArray[RL_Count]=150;//object is aluminum
				else if(ADCAverage<850)typeArray[RL_Count]=50;//object is steel
				else if(ADCAverage<960){
					typeArray[RL_Count]=100;//object is white
    1046:	0f 2e       	mov	r0, r31
    1048:	f2 e3       	ldi	r31, 0x32	; 50
    104a:	8f 2e       	mov	r8, r31
    104c:	91 2c       	mov	r9, r1
    104e:	f0 2d       	mov	r31, r0
				PORTD|=((ADCAverage&0x0300)>>3);
				tempFerrous=inductiveArray[RL_Count]; //store whether object was ferrous or non-ferrous
				inductiveArray[RL_Count]=0x00; //reset inductive array to zero; otherwise, array will produce errors if more than 64 objects are sorted
				//sorting objects by reflectivity; using inductive on black and white plastics
				if (ADCAverage<300)typeArray[RL_Count]=150;//object is aluminum
				else if(ADCAverage<850)typeArray[RL_Count]=50;//object is steel
    1050:	0f 2e       	mov	r0, r31
    1052:	f6 e9       	ldi	r31, 0x96	; 150
    1054:	af 2e       	mov	r10, r31
    1056:	b1 2c       	mov	r11, r1
    1058:	f0 2d       	mov	r31, r0
				PORTD&=0x0F;
				PORTD|=((ADCAverage&0x0300)>>3);
				tempFerrous=inductiveArray[RL_Count]; //store whether object was ferrous or non-ferrous
				inductiveArray[RL_Count]=0x00; //reset inductive array to zero; otherwise, array will produce errors if more than 64 objects are sorted
				//sorting objects by reflectivity; using inductive on black and white plastics
				if (ADCAverage<300)typeArray[RL_Count]=150;//object is aluminum
    105a:	01 e9       	ldi	r16, 0x91	; 145
    105c:	10 e0       	ldi	r17, 0x00	; 0
    105e:	cc 24       	eor	r12, r12
    1060:	c3 94       	inc	r12
    1062:	d1 2c       	mov	r13, r1
					TCNT3=0x00; //set timer equal to zero
					if ((TIFR3 & 0x01) == 0x01)TIFR3|=0x01; //if TOV3 flag is set to 1, reset to 0 by setting bit to 1 (confused?)
				} //because of the closeness of interrupts OI and IN sensor, reliance on OI_Count w.r.t. inductive, delay given
				if ((TIFR3 & 0x01) == 0x01){ //if counter has overflowed ~>8ms; time to allow OI_Count to change
					inductiveFlag=0; //reset flag; allow flag to reset again after 8ms
					TCCR3B&=0b11111000; //disable timer 3
    1064:	0f 2e       	mov	r0, r31
    1066:	f4 e9       	ldi	r31, 0x94	; 148
					falseInductFlag=0x00; //reset flag
					inductiveArray[(OI_Count-1)%64]=0x01; //set the actual current object to inductive=1; modulus of 64
    1068:	ef 2e       	mov	r14, r31
    106a:	f1 2c       	mov	r15, r1
    106c:	f0 2d       	mov	r31, r0
			programPause = 1;
			if (inductiveFlag){ //triggered on a falling edge when a ferrous material is in front of inductive sensor
				if (falseInductFlag==0x00){
					falseInductFlag=0x01;
					TCCR3B |= _BV(CS30); //clock pre-scalar (clk/1); initialize clock counting
					TCNT3=0x00; //set timer equal to zero
    106e:	68 94       	set
    1070:	33 24       	eor	r3, r3
    1072:	32 f8       	bld	r3, 2
    1074:	80 91 88 05 	lds	r24, 0x0588	; 0x800588 <menuState>
			
			if(left_key_press){
				left_key_press = 0;
				barState = barState -1;
				if(barState < 1) {
					barState = 4;
    1078:	81 11       	cpse	r24, r1
    107a:	5c c1       	rjmp	.+696    	; 0x1334 <main+0x3b6>
    107c:	50 92 89 05 	sts	0x0589, r5	; 0x800589 <programPause>
	PORTC=0b00001111;
	mTimer0(2000);
	stepperHome(&stepperPosition,&stepperIteration); //home stepper
	motorControl(CONVEYOR_SPEED,DC_FORWARD);//conveyor forward (counter-clock-wise)
	while(1){
		if(menuState==0){
    1080:	80 91 0f 06 	lds	r24, 0x060F	; 0x80060f <inductiveFlag>
    1084:	88 23       	and	r24, r24
			programPause = 1;
    1086:	29 f1       	breq	.+74     	; 0x10d2 <main+0x154>
    1088:	41 10       	cpse	r4, r1
			if (inductiveFlag){ //triggered on a falling edge when a ferrous material is in front of inductive sensor
    108a:	0d c0       	rjmp	.+26     	; 0x10a6 <main+0x128>
    108c:	f8 01       	movw	r30, r16
    108e:	80 81       	ld	r24, Z
    1090:	81 60       	ori	r24, 0x01	; 1
				if (falseInductFlag==0x00){
    1092:	80 83       	st	Z, r24
    1094:	f7 01       	movw	r30, r14
					falseInductFlag=0x01;
					TCCR3B |= _BV(CS30); //clock pre-scalar (clk/1); initialize clock counting
    1096:	11 82       	std	Z+1, r1	; 0x01
    1098:	10 82       	st	Z, r1
    109a:	c0 9b       	sbis	0x18, 0	; 24
    109c:	03 c0       	rjmp	.+6      	; 0x10a4 <main+0x126>
					TCNT3=0x00; //set timer equal to zero
    109e:	c0 9a       	sbi	0x18, 0	; 24
    10a0:	45 2c       	mov	r4, r5
    10a2:	01 c0       	rjmp	.+2      	; 0x10a6 <main+0x128>
					if ((TIFR3 & 0x01) == 0x01)TIFR3|=0x01; //if TOV3 flag is set to 1, reset to 0 by setting bit to 1 (confused?)
    10a4:	45 2c       	mov	r4, r5
    10a6:	c0 9b       	sbis	0x18, 0	; 24
    10a8:	14 c0       	rjmp	.+40     	; 0x10d2 <main+0x154>
	while(1){
		if(menuState==0){
			programPause = 1;
			if (inductiveFlag){ //triggered on a falling edge when a ferrous material is in front of inductive sensor
				if (falseInductFlag==0x00){
					falseInductFlag=0x01;
    10aa:	10 92 0f 06 	sts	0x060F, r1	; 0x80060f <inductiveFlag>
    10ae:	f8 01       	movw	r30, r16
					TCCR3B |= _BV(CS30); //clock pre-scalar (clk/1); initialize clock counting
					TCNT3=0x00; //set timer equal to zero
					if ((TIFR3 & 0x01) == 0x01)TIFR3|=0x01; //if TOV3 flag is set to 1, reset to 0 by setting bit to 1 (confused?)
				} //because of the closeness of interrupts OI and IN sensor, reliance on OI_Count w.r.t. inductive, delay given
				if ((TIFR3 & 0x01) == 0x01){ //if counter has overflowed ~>8ms; time to allow OI_Count to change
    10b0:	80 81       	ld	r24, Z
    10b2:	88 7f       	andi	r24, 0xF8	; 248
					inductiveFlag=0; //reset flag; allow flag to reset again after 8ms
    10b4:	80 83       	st	Z, r24
    10b6:	e0 91 28 07 	lds	r30, 0x0728	; 0x800728 <OI_Count>
					TCCR3B&=0b11111000; //disable timer 3
    10ba:	f0 91 29 07 	lds	r31, 0x0729	; 0x800729 <OI_Count+0x1>
    10be:	31 97       	sbiw	r30, 0x01	; 1
					falseInductFlag=0x00; //reset flag
					inductiveArray[(OI_Count-1)%64]=0x01; //set the actual current object to inductive=1; modulus of 64
    10c0:	ef 73       	andi	r30, 0x3F	; 63
    10c2:	ff 27       	eor	r31, r31
    10c4:	ee 0f       	add	r30, r30
    10c6:	ff 1f       	adc	r31, r31
    10c8:	ea 5e       	subi	r30, 0xEA	; 234
    10ca:	f9 4f       	sbci	r31, 0xF9	; 249
    10cc:	d1 82       	std	Z+1, r13	; 0x01
    10ce:	c0 82       	st	Z, r12
    10d0:	41 2c       	mov	r4, r1
    10d2:	80 91 11 06 	lds	r24, 0x0611	; 0x800611 <ADCResultFlag>
    10d6:	88 23       	and	r24, r24
    10d8:	09 f4       	brne	.+2      	; 0x10dc <main+0x15e>
					if ((TIFR3 & 0x01) == 0x01)TIFR3|=0x01; //if TOV3 flag is set to 1, reset to 0 by setting bit to 1 (confused?)
				} //because of the closeness of interrupts OI and IN sensor, reliance on OI_Count w.r.t. inductive, delay given
				if ((TIFR3 & 0x01) == 0x01){ //if counter has overflowed ~>8ms; time to allow OI_Count to change
					inductiveFlag=0; //reset flag; allow flag to reset again after 8ms
					TCCR3B&=0b11111000; //disable timer 3
					falseInductFlag=0x00; //reset flag
    10da:	bb c0       	rjmp	.+374    	; 0x1252 <main+0x2d4>
					inductiveArray[(OI_Count-1)%64]=0x01; //set the actual current object to inductive=1; modulus of 64
				}
			} 
			if(ADCResultFlag){ //If the minimum reflectivity has been reached for an object
    10dc:	10 92 11 06 	sts	0x0611, r1	; 0x800611 <ADCResultFlag>
    10e0:	10 92 15 06 	sts	0x0615, r1	; 0x800615 <ADCAverage+0x1>
    10e4:	10 92 14 06 	sts	0x0614, r1	; 0x800614 <ADCAverage>
				ADCResultFlag=0; //reset flag
    10e8:	84 e0       	ldi	r24, 0x04	; 4
				//ADCAverage=lowADC;
				ADCAverage=0;
    10ea:	90 e0       	ldi	r25, 0x00	; 0
    10ec:	e0 91 96 06 	lds	r30, 0x0696	; 0x800696 <ADCFilterCount>
    10f0:	f0 91 97 06 	lds	r31, 0x0697	; 0x800697 <ADCFilterCount+0x1>
    10f4:	ee 0f       	add	r30, r30
				//ADCAverage=lowADC;
				for(i=0;i<4;i++){
					ADCAverage+=lowADCArray[ADCFilterCount];
    10f6:	ff 1f       	adc	r31, r31
    10f8:	e6 56       	subi	r30, 0x66	; 102
    10fa:	f9 4f       	sbci	r31, 0xF9	; 249
    10fc:	40 81       	ld	r20, Z
    10fe:	51 81       	ldd	r21, Z+1	; 0x01
    1100:	20 91 14 06 	lds	r18, 0x0614	; 0x800614 <ADCAverage>
    1104:	30 91 15 06 	lds	r19, 0x0615	; 0x800615 <ADCAverage+0x1>
    1108:	24 0f       	add	r18, r20
    110a:	35 1f       	adc	r19, r21
    110c:	30 93 15 06 	sts	0x0615, r19	; 0x800615 <ADCAverage+0x1>
    1110:	20 93 14 06 	sts	0x0614, r18	; 0x800614 <ADCAverage>
    1114:	20 91 96 06 	lds	r18, 0x0696	; 0x800696 <ADCFilterCount>
    1118:	30 91 97 06 	lds	r19, 0x0697	; 0x800697 <ADCFilterCount+0x1>
    111c:	2f 5f       	subi	r18, 0xFF	; 255
					ADCFilterCount++;
    111e:	3f 4f       	sbci	r19, 0xFF	; 255
    1120:	30 93 97 06 	sts	0x0697, r19	; 0x800697 <ADCFilterCount+0x1>
    1124:	20 93 96 06 	sts	0x0696, r18	; 0x800696 <ADCFilterCount>
    1128:	20 91 96 06 	lds	r18, 0x0696	; 0x800696 <ADCFilterCount>
    112c:	30 91 97 06 	lds	r19, 0x0697	; 0x800697 <ADCFilterCount+0x1>
    1130:	23 70       	andi	r18, 0x03	; 3
					ADCFilterCount&=0b00000011; //modulus of 8 with positive incrementing variables
    1132:	33 27       	eor	r19, r19
    1134:	30 93 97 06 	sts	0x0697, r19	; 0x800697 <ADCFilterCount+0x1>
    1138:	20 93 96 06 	sts	0x0696, r18	; 0x800696 <ADCFilterCount>
    113c:	01 97       	sbiw	r24, 0x01	; 1
    113e:	b1 f6       	brne	.-84     	; 0x10ec <main+0x16e>
    1140:	80 91 14 06 	lds	r24, 0x0614	; 0x800614 <ADCAverage>
    1144:	90 91 15 06 	lds	r25, 0x0615	; 0x800615 <ADCAverage+0x1>
			if(ADCResultFlag){ //If the minimum reflectivity has been reached for an object
				ADCResultFlag=0; //reset flag
				//ADCAverage=lowADC;
				ADCAverage=0;
				//ADCAverage=lowADC;
				for(i=0;i<4;i++){
    1148:	96 95       	lsr	r25
				/*for(i=0;i<16;i++){
					ADCAverage+=lowADCArray[ADCFilterCount];
					ADCFilterCount++;
					ADCFilterCount&=0b00001111; //modulus of 16 with positive incrementing variables
				}*/	
				ADCAverage>>=2; //division by 4 with chopping arithmetic
    114a:	87 95       	ror	r24
    114c:	96 95       	lsr	r25
    114e:	87 95       	ror	r24
    1150:	90 93 15 06 	sts	0x0615, r25	; 0x800615 <ADCAverage+0x1>
    1154:	80 93 14 06 	sts	0x0614, r24	; 0x800614 <ADCAverage>
    1158:	80 91 14 06 	lds	r24, 0x0614	; 0x800614 <ADCAverage>
    115c:	90 91 15 06 	lds	r25, 0x0615	; 0x800615 <ADCAverage+0x1>
    1160:	88 b9       	out	0x08, r24	; 8
				//ADCAverage>>=5; //division by 32 with chopping arithmetic
				//reflectivityArray[RL_Count]=ADCAverage;
				//PORTC=ADCAverage;
				//PORTD&=0x0F;
				//PORTD|=((ADCAverage&0x0300)>>3);
				PORTC=ADCAverage&0x00FF;
    1162:	8b b1       	in	r24, 0x0b	; 11
    1164:	8f 70       	andi	r24, 0x0F	; 15
    1166:	8b b9       	out	0x0b, r24	; 11
    1168:	80 91 14 06 	lds	r24, 0x0614	; 0x800614 <ADCAverage>
				PORTD&=0x0F;
    116c:	90 91 15 06 	lds	r25, 0x0615	; 0x800615 <ADCAverage+0x1>
    1170:	2b b1       	in	r18, 0x0b	; 11
				PORTD|=((ADCAverage&0x0300)>>3);
    1172:	88 27       	eor	r24, r24
    1174:	93 70       	andi	r25, 0x03	; 3
    1176:	96 95       	lsr	r25
    1178:	87 95       	ror	r24
    117a:	96 95       	lsr	r25
    117c:	87 95       	ror	r24
    117e:	96 95       	lsr	r25
    1180:	87 95       	ror	r24
    1182:	82 2b       	or	r24, r18
    1184:	8b b9       	out	0x0b, r24	; 11
    1186:	e0 91 0c 06 	lds	r30, 0x060C	; 0x80060c <RL_Count>
    118a:	f0 91 0d 06 	lds	r31, 0x060D	; 0x80060d <RL_Count+0x1>
    118e:	ee 0f       	add	r30, r30
				tempFerrous=inductiveArray[RL_Count]; //store whether object was ferrous or non-ferrous
    1190:	ff 1f       	adc	r31, r31
    1192:	ea 5e       	subi	r30, 0xEA	; 234
    1194:	f9 4f       	sbci	r31, 0xF9	; 249
    1196:	80 81       	ld	r24, Z
    1198:	91 81       	ldd	r25, Z+1	; 0x01
    119a:	e0 91 0c 06 	lds	r30, 0x060C	; 0x80060c <RL_Count>
    119e:	f0 91 0d 06 	lds	r31, 0x060D	; 0x80060d <RL_Count+0x1>
    11a2:	ee 0f       	add	r30, r30
				inductiveArray[RL_Count]=0x00; //reset inductive array to zero; otherwise, array will produce errors if more than 64 objects are sorted
    11a4:	ff 1f       	adc	r31, r31
    11a6:	ea 5e       	subi	r30, 0xEA	; 234
    11a8:	f9 4f       	sbci	r31, 0xF9	; 249
    11aa:	11 82       	std	Z+1, r1	; 0x01
    11ac:	10 82       	st	Z, r1
    11ae:	80 91 14 06 	lds	r24, 0x0614	; 0x800614 <ADCAverage>
    11b2:	90 91 15 06 	lds	r25, 0x0615	; 0x800615 <ADCAverage+0x1>
    11b6:	8c 32       	cpi	r24, 0x2C	; 44
				//sorting objects by reflectivity; using inductive on black and white plastics
				if (ADCAverage<300)typeArray[RL_Count]=150;//object is aluminum
    11b8:	91 40       	sbci	r25, 0x01	; 1
    11ba:	58 f4       	brcc	.+22     	; 0x11d2 <main+0x254>
    11bc:	e0 91 0c 06 	lds	r30, 0x060C	; 0x80060c <RL_Count>
    11c0:	f0 91 0d 06 	lds	r31, 0x060D	; 0x80060d <RL_Count+0x1>
    11c4:	ee 0f       	add	r30, r30
    11c6:	ff 1f       	adc	r31, r31
    11c8:	e4 57       	subi	r30, 0x74	; 116
    11ca:	fa 4f       	sbci	r31, 0xFA	; 250
    11cc:	b1 82       	std	Z+1, r11	; 0x01
    11ce:	a0 82       	st	Z, r10
    11d0:	2e c0       	rjmp	.+92     	; 0x122e <main+0x2b0>
    11d2:	80 91 14 06 	lds	r24, 0x0614	; 0x800614 <ADCAverage>
    11d6:	90 91 15 06 	lds	r25, 0x0615	; 0x800615 <ADCAverage+0x1>
    11da:	82 35       	cpi	r24, 0x52	; 82
				else if(ADCAverage<850)typeArray[RL_Count]=50;//object is steel
    11dc:	93 40       	sbci	r25, 0x03	; 3
    11de:	58 f4       	brcc	.+22     	; 0x11f6 <main+0x278>
    11e0:	e0 91 0c 06 	lds	r30, 0x060C	; 0x80060c <RL_Count>
    11e4:	f0 91 0d 06 	lds	r31, 0x060D	; 0x80060d <RL_Count+0x1>
    11e8:	ee 0f       	add	r30, r30
    11ea:	ff 1f       	adc	r31, r31
    11ec:	e4 57       	subi	r30, 0x74	; 116
    11ee:	fa 4f       	sbci	r31, 0xFA	; 250
    11f0:	91 82       	std	Z+1, r9	; 0x01
    11f2:	80 82       	st	Z, r8
    11f4:	1c c0       	rjmp	.+56     	; 0x122e <main+0x2b0>
    11f6:	80 91 14 06 	lds	r24, 0x0614	; 0x800614 <ADCAverage>
    11fa:	90 91 15 06 	lds	r25, 0x0615	; 0x800615 <ADCAverage+0x1>
    11fe:	80 3c       	cpi	r24, 0xC0	; 192
				else if(ADCAverage<960){
    1200:	93 40       	sbci	r25, 0x03	; 3
    1202:	58 f4       	brcc	.+22     	; 0x121a <main+0x29c>
    1204:	e0 91 0c 06 	lds	r30, 0x060C	; 0x80060c <RL_Count>
    1208:	f0 91 0d 06 	lds	r31, 0x060D	; 0x80060d <RL_Count+0x1>
    120c:	ee 0f       	add	r30, r30
					typeArray[RL_Count]=100;//object is white
    120e:	ff 1f       	adc	r31, r31
    1210:	e4 57       	subi	r30, 0x74	; 116
    1212:	fa 4f       	sbci	r31, 0xFA	; 250
    1214:	71 82       	std	Z+1, r7	; 0x01
    1216:	60 82       	st	Z, r6
    1218:	0a c0       	rjmp	.+20     	; 0x122e <main+0x2b0>
    121a:	e0 91 0c 06 	lds	r30, 0x060C	; 0x80060c <RL_Count>
    121e:	f0 91 0d 06 	lds	r31, 0x060D	; 0x80060d <RL_Count+0x1>
    1222:	ee 0f       	add	r30, r30
					//if(!tempFerrous)typeArray[RL_Count]=100;//object is white
					//else typeArray[RL_Count]=50;//object is steel when it is dark
				}
				else{//object is non-reflective
					typeArray[RL_Count]=0;//object is black plastic when no ferrous material exists
    1224:	ff 1f       	adc	r31, r31
    1226:	e4 57       	subi	r30, 0x74	; 116
    1228:	fa 4f       	sbci	r31, 0xFA	; 250
    122a:	11 82       	std	Z+1, r1	; 0x01
    122c:	10 82       	st	Z, r1
    122e:	80 91 0c 06 	lds	r24, 0x060C	; 0x80060c <RL_Count>
    1232:	90 91 0d 06 	lds	r25, 0x060D	; 0x80060d <RL_Count+0x1>
    1236:	01 96       	adiw	r24, 0x01	; 1
					//if(!tempFerrous) typeArray[RL_Count]=0;//object is black plastic when no ferrous material exists
					//else typeArray[RL_Count]=50;//object is steel when it is dark			 
				}
				RL_Count++;//add one to amount of objects that have had their reflectivity's measured
    1238:	90 93 0d 06 	sts	0x060D, r25	; 0x80060d <RL_Count+0x1>
    123c:	80 93 0c 06 	sts	0x060C, r24	; 0x80060c <RL_Count>
    1240:	80 91 8a 05 	lds	r24, 0x058A	; 0x80058a <OIRL_Count>
    1244:	90 91 8b 05 	lds	r25, 0x058B	; 0x80058b <OIRL_Count+0x1>
    1248:	01 97       	sbiw	r24, 0x01	; 1
				RLEX_Count+=1;
				OIRL_Count-=1;			
    124a:	90 93 8b 05 	sts	0x058B, r25	; 0x80058b <OIRL_Count+0x1>
    124e:	80 93 8a 05 	sts	0x058A, r24	; 0x80058a <OIRL_Count>
    1252:	80 91 2a 07 	lds	r24, 0x072A	; 0x80072a <optExitFlag>
    1256:	88 23       	and	r24, r24
    1258:	b1 f1       	breq	.+108    	; 0x12c6 <main+0x348>
    125a:	e0 91 12 06 	lds	r30, 0x0612	; 0x800612 <EX_Count>
				//ADCCompleteFlag=0x01; //set flag to tell system there is no ADC conversions occurring
			}
			if(optExitFlag){ //object has hit sensor at end of conveyor
    125e:	f0 91 13 06 	lds	r31, 0x0613	; 0x800613 <EX_Count+0x1>
    1262:	ee 0f       	add	r30, r30
				//mTimer2(1000);
				//PORTC = OI_Count;
				//mTimer2(500);
				//PORTC = RL_Count;
				//mTimer2(500);
				tempType=typeArray[EX_Count];
    1264:	ff 1f       	adc	r31, r31
    1266:	e4 57       	subi	r30, 0x74	; 116
    1268:	fa 4f       	sbci	r31, 0xFA	; 250
    126a:	20 81       	ld	r18, Z
    126c:	31 81       	ldd	r19, Z+1	; 0x01
    126e:	89 81       	ldd	r24, Y+1	; 0x01
    1270:	9a 81       	ldd	r25, Y+2	; 0x02
    1272:	82 1b       	sub	r24, r18
    1274:	93 0b       	sbc	r25, r19
    1276:	e1 f0       	breq	.+56     	; 0x12b0 <main+0x332>
				stepperMovement=stepperPosition-tempType;
    1278:	2e b1       	in	r18, 0x0e	; 14
    127a:	20 7f       	andi	r18, 0xF0	; 240
    127c:	2e b9       	out	0x0e, r18	; 14
    127e:	9c 01       	movw	r18, r24
				//PORTC=typeArray[EX_Count];
				//PORTC=stepperMovement;
				if (stepperMovement){//if object type doesn't match stepper location; stop motor, move stepper, start motor
    1280:	99 23       	and	r25, r25
					//PORTC=0b00111100;
					PORTE &=0xF0; //Apply Vcc brake to motor
    1282:	24 f4       	brge	.+8      	; 0x128c <main+0x30e>
    1284:	22 27       	eor	r18, r18
    1286:	33 27       	eor	r19, r19
					//stepper rotation logic; value of steps to rotate stepper is kept between 1:100)		
					if (abs(stepperMovement)>100){
    1288:	28 1b       	sub	r18, r24
    128a:	39 0b       	sbc	r19, r25
    128c:	25 36       	cpi	r18, 0x65	; 101
    128e:	31 05       	cpc	r19, r1
    1290:	3c f0       	brlt	.+14     	; 0x12a0 <main+0x322>
    1292:	99 23       	and	r25, r25
    1294:	1c f4       	brge	.+6      	; 0x129c <main+0x31e>
    1296:	88 53       	subi	r24, 0x38	; 56
    1298:	9f 4f       	sbci	r25, 0xFF	; 255
						if (stepperMovement<0) stepperMovement+=200;
    129a:	02 c0       	rjmp	.+4      	; 0x12a0 <main+0x322>
    129c:	88 5c       	subi	r24, 0xC8	; 200
    129e:	91 09       	sbc	r25, r1
    12a0:	ae 01       	movw	r20, r28
    12a2:	4d 5f       	subi	r20, 0xFD	; 253
						else stepperMovement-=200;
    12a4:	5f 4f       	sbci	r21, 0xFF	; 255
    12a6:	be 01       	movw	r22, r28
					}
					stepperControl(stepperMovement, &stepperPosition, &stepperIteration);//rotate stepper to proper location
    12a8:	6f 5f       	subi	r22, 0xFF	; 255
    12aa:	7f 4f       	sbci	r23, 0xFF	; 255
    12ac:	e5 dc       	rcall	.-1590   	; 0xc78 <stepperControl>
    12ae:	72 9a       	sbi	0x0e, 2	; 14
    12b0:	80 91 12 06 	lds	r24, 0x0612	; 0x800612 <EX_Count>
    12b4:	90 91 13 06 	lds	r25, 0x0613	; 0x800613 <EX_Count+0x1>
					PORTE |=0b00000100; //start motor forwards
    12b8:	01 96       	adiw	r24, 0x01	; 1
				if (tempType==0)BL_Count += 0x01;
				else if (tempType==50)ST_Count += 0x01;
				else if (tempType==100)WH_Count += 0x01;
				else if (tempType==150)AL_Count += 0x01;
				RLEX_Count-=1;
				EX_Count++;
    12ba:	90 93 13 06 	sts	0x0613, r25	; 0x800613 <EX_Count+0x1>
    12be:	80 93 12 06 	sts	0x0612, r24	; 0x800612 <EX_Count>
    12c2:	10 92 2a 07 	sts	0x072A, r1	; 0x80072a <optExitFlag>
    12c6:	80 91 8a 05 	lds	r24, 0x058A	; 0x80058a <OIRL_Count>
    12ca:	90 91 8b 05 	lds	r25, 0x058B	; 0x80058b <OIRL_Count+0x1>
				optExitFlag=0; //reset flag
    12ce:	18 16       	cp	r1, r24
			}
			if(OIRL_Count<=0)OI_Count=RL_Count; //OI optical sensor is unreliable;set equal to RL sensor count if no objects between sensors
    12d0:	19 06       	cpc	r1, r25
    12d2:	44 f0       	brlt	.+16     	; 0x12e4 <main+0x366>
    12d4:	80 91 0c 06 	lds	r24, 0x060C	; 0x80060c <RL_Count>
    12d8:	90 91 0d 06 	lds	r25, 0x060D	; 0x80060d <RL_Count+0x1>
    12dc:	90 93 29 07 	sts	0x0729, r25	; 0x800729 <OI_Count+0x1>
    12e0:	80 93 28 07 	sts	0x0728, r24	; 0x800728 <OI_Count>
    12e4:	80 91 28 07 	lds	r24, 0x0728	; 0x800728 <OI_Count>
    12e8:	90 91 29 07 	lds	r25, 0x0729	; 0x800729 <OI_Count+0x1>
    12ec:	8f 73       	andi	r24, 0x3F	; 63
			}
			if (rampDownFlag){//if RAMP DOWN Button is pressed
				//
			}*/
			//efficient modulus for counters; forces them to stay within 0->63 as struct array only has 64 places
			OI_Count &= 0b00111111;//modulus of 64
    12ee:	99 27       	eor	r25, r25
    12f0:	90 93 29 07 	sts	0x0729, r25	; 0x800729 <OI_Count+0x1>
    12f4:	80 93 28 07 	sts	0x0728, r24	; 0x800728 <OI_Count>
    12f8:	80 91 0c 06 	lds	r24, 0x060C	; 0x80060c <RL_Count>
    12fc:	90 91 0d 06 	lds	r25, 0x060D	; 0x80060d <RL_Count+0x1>
    1300:	8f 73       	andi	r24, 0x3F	; 63
			RL_Count &= 0b00111111;
    1302:	99 27       	eor	r25, r25
    1304:	90 93 0d 06 	sts	0x060D, r25	; 0x80060d <RL_Count+0x1>
    1308:	80 93 0c 06 	sts	0x060C, r24	; 0x80060c <RL_Count>
    130c:	80 91 98 06 	lds	r24, 0x0698	; 0x800698 <OR_Count>
    1310:	90 91 99 06 	lds	r25, 0x0699	; 0x800699 <OR_Count+0x1>
    1314:	8f 73       	andi	r24, 0x3F	; 63
			OR_Count &= 0b00111111;
    1316:	99 27       	eor	r25, r25
    1318:	90 93 99 06 	sts	0x0699, r25	; 0x800699 <OR_Count+0x1>
    131c:	80 93 98 06 	sts	0x0698, r24	; 0x800698 <OR_Count>
    1320:	80 91 12 06 	lds	r24, 0x0612	; 0x800612 <EX_Count>
    1324:	90 91 13 06 	lds	r25, 0x0613	; 0x800613 <EX_Count+0x1>
    1328:	8f 73       	andi	r24, 0x3F	; 63
			EX_Count &= 0b00111111;
    132a:	99 27       	eor	r25, r25
    132c:	90 93 13 06 	sts	0x0613, r25	; 0x800613 <EX_Count+0x1>
    1330:	80 93 12 06 	sts	0x0612, r24	; 0x800612 <EX_Count>
    1334:	80 91 88 05 	lds	r24, 0x0588	; 0x800588 <menuState>
    1338:	81 30       	cpi	r24, 0x01	; 1
    133a:	c1 f4       	brne	.+48     	; 0x136c <main+0x3ee>
		}//end of sort code
		if(menuState==1){//pause function
    133c:	80 91 87 05 	lds	r24, 0x0587	; 0x800587 <rampDownSet>
    1340:	81 11       	cpse	r24, r1
			if(rampDownSet==0){
    1342:	05 c0       	rjmp	.+10     	; 0x134e <main+0x3d0>
    1344:	82 e2       	ldi	r24, 0x22	; 34
    1346:	01 db       	rcall	.-2558   	; 0x94a <drawPause>
    1348:	10 92 89 05 	sts	0x0589, r1	; 0x800589 <programPause>
				drawPause(34);
				programPause = 0;
    134c:	0f c0       	rjmp	.+30     	; 0x136c <main+0x3ee>
    134e:	80 91 87 05 	lds	r24, 0x0587	; 0x800587 <rampDownSet>
				}else if(rampDownSet==1){
    1352:	81 30       	cpi	r24, 0x01	; 1
    1354:	59 f4       	brne	.+22     	; 0x136c <main+0x3ee>
    1356:	e9 d9       	rcall	.-3118   	; 0x72a <clear>
				clear();
    1358:	4f e6       	ldi	r20, 0x6F	; 111
    135a:	51 e0       	ldi	r21, 0x01	; 1
				drawString(24,24, "Complete");
    135c:	68 e1       	ldi	r22, 0x18	; 24
    135e:	70 e0       	ldi	r23, 0x00	; 0
    1360:	88 e1       	ldi	r24, 0x18	; 24
    1362:	90 e0       	ldi	r25, 0x00	; 0
    1364:	69 da       	rcall	.-2862   	; 0x838 <drawString>
    1366:	ea d9       	rcall	.-3116   	; 0x73c <show>
				show();
    1368:	10 92 89 05 	sts	0x0589, r1	; 0x800589 <programPause>
				programPause = 0;
    136c:	80 91 88 05 	lds	r24, 0x0588	; 0x800588 <menuState>
			}
		} // End menuState 1
		
		// Ramp Down
		if(menuState==2){
    1370:	82 30       	cpi	r24, 0x02	; 2
    1372:	59 f4       	brne	.+22     	; 0x138a <main+0x40c>
			
			clear(); //to clear display buffer
    1374:	da d9       	rcall	.-3148   	; 0x72a <clear>
			drawString(12,16, "Ramp Down");
    1376:	48 e7       	ldi	r20, 0x78	; 120
    1378:	51 e0       	ldi	r21, 0x01	; 1
    137a:	60 e1       	ldi	r22, 0x10	; 16
    137c:	70 e0       	ldi	r23, 0x00	; 0
    137e:	8c e0       	ldi	r24, 0x0C	; 12
    1380:	90 e0       	ldi	r25, 0x00	; 0
    1382:	5a da       	rcall	.-2892   	; 0x838 <drawString>
			show();
    1384:	db d9       	rcall	.-3146   	; 0x73c <show>
    1386:	50 92 88 05 	sts	0x0588, r5	; 0x800588 <menuState>
			
			//When finished Ramp Down
			//mTimer(10); // Remove, placeholder to simulated that sorting has finished
			menuState=1;
    138a:	80 91 88 05 	lds	r24, 0x0588	; 0x800588 <menuState>
			
		} // End menuState 2
		
		// Calibrate Menu
		if(menuState==3){
    138e:	83 30       	cpi	r24, 0x03	; 3
    1390:	51 f5       	brne	.+84     	; 0x13e6 <main+0x468>
    1392:	50 92 89 05 	sts	0x0589, r5	; 0x800589 <programPause>
			programPause = 1;
    1396:	c9 d9       	rcall	.-3182   	; 0x72a <clear>
			clear();
    1398:	34 db       	rcall	.-2456   	; 0xa02 <drawCalibrateADC>
    139a:	80 91 09 01 	lds	r24, 0x0109	; 0x800109 <barState>
			drawCalibrateADC();
    139e:	69 db       	rcall	.-2350   	; 0xa72 <drawSelectBar>
			drawSelectBar(barState);
    13a0:	cd d9       	rcall	.-3174   	; 0x73c <show>
    13a2:	80 91 86 05 	lds	r24, 0x0586	; 0x800586 <right_key_press>
    13a6:	88 23       	and	r24, r24
			show();
    13a8:	69 f0       	breq	.+26     	; 0x13c4 <main+0x446>
    13aa:	10 92 86 05 	sts	0x0586, r1	; 0x800586 <right_key_press>
			
			if(right_key_press){
    13ae:	80 91 09 01 	lds	r24, 0x0109	; 0x800109 <barState>
    13b2:	8f 5f       	subi	r24, 0xFF	; 255
				right_key_press = 0;
    13b4:	80 93 09 01 	sts	0x0109, r24	; 0x800109 <barState>
				barState=barState+1;
    13b8:	80 91 09 01 	lds	r24, 0x0109	; 0x800109 <barState>
    13bc:	85 30       	cpi	r24, 0x05	; 5
    13be:	10 f0       	brcs	.+4      	; 0x13c4 <main+0x446>
    13c0:	50 92 09 01 	sts	0x0109, r5	; 0x800109 <barState>
				if(barState > 4) {
    13c4:	80 91 85 05 	lds	r24, 0x0585	; 0x800585 <left_key_press>
    13c8:	88 23       	and	r24, r24
					barState = 1;
    13ca:	69 f0       	breq	.+26     	; 0x13e6 <main+0x468>
    13cc:	10 92 85 05 	sts	0x0585, r1	; 0x800585 <left_key_press>
				}
			}
			
			if(left_key_press){
    13d0:	80 91 09 01 	lds	r24, 0x0109	; 0x800109 <barState>
    13d4:	81 50       	subi	r24, 0x01	; 1
				left_key_press = 0;
    13d6:	80 93 09 01 	sts	0x0109, r24	; 0x800109 <barState>
				barState = barState -1;
    13da:	80 91 09 01 	lds	r24, 0x0109	; 0x800109 <barState>
    13de:	81 11       	cpse	r24, r1
    13e0:	02 c0       	rjmp	.+4      	; 0x13e6 <main+0x468>
    13e2:	30 92 09 01 	sts	0x0109, r3	; 0x800109 <barState>
				if(barState < 1) {
    13e6:	80 91 88 05 	lds	r24, 0x0588	; 0x800588 <menuState>
    13ea:	84 30       	cpi	r24, 0x04	; 4
					barState = 4;
    13ec:	09 f0       	breq	.+2      	; 0x13f0 <main+0x472>
    13ee:	a2 c0       	rjmp	.+324    	; 0x1534 <main+0x5b6>
				}
			}
		} // End menuState 3
		
		// Object Colour Calibration
		if(menuState==4){
    13f0:	80 91 09 01 	lds	r24, 0x0109	; 0x800109 <barState>
    13f4:	82 30       	cpi	r24, 0x02	; 2
    13f6:	81 f1       	breq	.+96     	; 0x1458 <main+0x4da>
    13f8:	18 f4       	brcc	.+6      	; 0x1400 <main+0x482>
			
			switch(barState)
    13fa:	81 30       	cpi	r24, 0x01	; 1
    13fc:	41 f0       	breq	.+16     	; 0x140e <main+0x490>
    13fe:	9a c0       	rjmp	.+308    	; 0x1534 <main+0x5b6>
    1400:	83 30       	cpi	r24, 0x03	; 3
    1402:	09 f4       	brne	.+2      	; 0x1406 <main+0x488>
    1404:	4e c0       	rjmp	.+156    	; 0x14a2 <main+0x524>
    1406:	84 30       	cpi	r24, 0x04	; 4
    1408:	09 f4       	brne	.+2      	; 0x140c <main+0x48e>
    140a:	70 c0       	rjmp	.+224    	; 0x14ec <main+0x56e>
    140c:	93 c0       	rjmp	.+294    	; 0x1534 <main+0x5b6>
    140e:	80 91 83 05 	lds	r24, 0x0583	; 0x800583 <up_key_press>
    1412:	81 30       	cpi	r24, 0x01	; 1
    1414:	61 f4       	brne	.+24     	; 0x142e <main+0x4b0>
    1416:	10 92 83 05 	sts	0x0583, r1	; 0x800583 <up_key_press>
			{
				// Draw Black
				case selBlack:
				if(up_key_press==1){
    141a:	80 91 06 01 	lds	r24, 0x0106	; 0x800106 <blkCali>
    141e:	90 91 07 01 	lds	r25, 0x0107	; 0x800107 <blkCali+0x1>
					up_key_press=0;
    1422:	01 96       	adiw	r24, 0x01	; 1
					blkCali++;
    1424:	90 93 07 01 	sts	0x0107, r25	; 0x800107 <blkCali+0x1>
    1428:	80 93 06 01 	sts	0x0106, r24	; 0x800106 <blkCali>
    142c:	0f c0       	rjmp	.+30     	; 0x144c <main+0x4ce>
    142e:	80 91 84 05 	lds	r24, 0x0584	; 0x800584 <down_key_press>
    1432:	81 30       	cpi	r24, 0x01	; 1
    1434:	59 f4       	brne	.+22     	; 0x144c <main+0x4ce>
					}else if(down_key_press==1){
    1436:	10 92 84 05 	sts	0x0584, r1	; 0x800584 <down_key_press>
    143a:	80 91 06 01 	lds	r24, 0x0106	; 0x800106 <blkCali>
					down_key_press=0;
    143e:	90 91 07 01 	lds	r25, 0x0107	; 0x800107 <blkCali+0x1>
					blkCali--;
    1442:	01 97       	sbiw	r24, 0x01	; 1
    1444:	90 93 07 01 	sts	0x0107, r25	; 0x800107 <blkCali+0x1>
    1448:	80 93 06 01 	sts	0x0106, r24	; 0x800106 <blkCali>
    144c:	80 91 06 01 	lds	r24, 0x0106	; 0x800106 <blkCali>
    1450:	90 91 07 01 	lds	r25, 0x0107	; 0x800107 <blkCali+0x1>
				}
				drawBlackCali(blkCali);
    1454:	4d db       	rcall	.-2406   	; 0xaf0 <drawBlackCali>
    1456:	6e c0       	rjmp	.+220    	; 0x1534 <main+0x5b6>
    1458:	80 91 83 05 	lds	r24, 0x0583	; 0x800583 <up_key_press>
    145c:	81 30       	cpi	r24, 0x01	; 1
    145e:	61 f4       	brne	.+24     	; 0x1478 <main+0x4fa>
				break;
    1460:	10 92 83 05 	sts	0x0583, r1	; 0x800583 <up_key_press>
				
				// Draw White
				case selWhite:
				if(up_key_press==1){
    1464:	80 91 04 01 	lds	r24, 0x0104	; 0x800104 <whtCali>
    1468:	90 91 05 01 	lds	r25, 0x0105	; 0x800105 <whtCali+0x1>
					up_key_press=0;
    146c:	01 96       	adiw	r24, 0x01	; 1
					whtCali++;
    146e:	90 93 05 01 	sts	0x0105, r25	; 0x800105 <whtCali+0x1>
    1472:	80 93 04 01 	sts	0x0104, r24	; 0x800104 <whtCali>
    1476:	0f c0       	rjmp	.+30     	; 0x1496 <main+0x518>
    1478:	80 91 84 05 	lds	r24, 0x0584	; 0x800584 <down_key_press>
    147c:	81 30       	cpi	r24, 0x01	; 1
    147e:	59 f4       	brne	.+22     	; 0x1496 <main+0x518>
					}else if(down_key_press==1){
    1480:	10 92 84 05 	sts	0x0584, r1	; 0x800584 <down_key_press>
    1484:	80 91 04 01 	lds	r24, 0x0104	; 0x800104 <whtCali>
					down_key_press=0;
    1488:	90 91 05 01 	lds	r25, 0x0105	; 0x800105 <whtCali+0x1>
					whtCali--;
    148c:	01 97       	sbiw	r24, 0x01	; 1
    148e:	90 93 05 01 	sts	0x0105, r25	; 0x800105 <whtCali+0x1>
    1492:	80 93 04 01 	sts	0x0104, r24	; 0x800104 <whtCali>
    1496:	80 91 04 01 	lds	r24, 0x0104	; 0x800104 <whtCali>
    149a:	90 91 05 01 	lds	r25, 0x0105	; 0x800105 <whtCali+0x1>
				}
				drawWhiteCali(whtCali);
    149e:	3d db       	rcall	.-2438   	; 0xb1a <drawWhiteCali>
    14a0:	49 c0       	rjmp	.+146    	; 0x1534 <main+0x5b6>
    14a2:	80 91 83 05 	lds	r24, 0x0583	; 0x800583 <up_key_press>
    14a6:	81 30       	cpi	r24, 0x01	; 1
    14a8:	61 f4       	brne	.+24     	; 0x14c2 <main+0x544>
				break;
    14aa:	10 92 83 05 	sts	0x0583, r1	; 0x800583 <up_key_press>
				
				// Draw Aluminum
				case selAlum:
				if(up_key_press==1){
    14ae:	80 91 02 01 	lds	r24, 0x0102	; 0x800102 <almCali>
    14b2:	90 91 03 01 	lds	r25, 0x0103	; 0x800103 <almCali+0x1>
					up_key_press=0;
    14b6:	01 96       	adiw	r24, 0x01	; 1
					almCali++;
    14b8:	90 93 03 01 	sts	0x0103, r25	; 0x800103 <almCali+0x1>
    14bc:	80 93 02 01 	sts	0x0102, r24	; 0x800102 <almCali>
    14c0:	0f c0       	rjmp	.+30     	; 0x14e0 <main+0x562>
    14c2:	80 91 84 05 	lds	r24, 0x0584	; 0x800584 <down_key_press>
    14c6:	81 30       	cpi	r24, 0x01	; 1
    14c8:	59 f4       	brne	.+22     	; 0x14e0 <main+0x562>
					}else if(down_key_press==1){
    14ca:	10 92 84 05 	sts	0x0584, r1	; 0x800584 <down_key_press>
    14ce:	80 91 02 01 	lds	r24, 0x0102	; 0x800102 <almCali>
					down_key_press=0;
    14d2:	90 91 03 01 	lds	r25, 0x0103	; 0x800103 <almCali+0x1>
					almCali--;
    14d6:	01 97       	sbiw	r24, 0x01	; 1
    14d8:	90 93 03 01 	sts	0x0103, r25	; 0x800103 <almCali+0x1>
    14dc:	80 93 02 01 	sts	0x0102, r24	; 0x800102 <almCali>
    14e0:	80 91 02 01 	lds	r24, 0x0102	; 0x800102 <almCali>
    14e4:	90 91 03 01 	lds	r25, 0x0103	; 0x800103 <almCali+0x1>
				}
				drawAluminumCali(almCali);
    14e8:	2d db       	rcall	.-2470   	; 0xb44 <drawAluminumCali>
    14ea:	24 c0       	rjmp	.+72     	; 0x1534 <main+0x5b6>
    14ec:	80 91 83 05 	lds	r24, 0x0583	; 0x800583 <up_key_press>
    14f0:	81 30       	cpi	r24, 0x01	; 1
    14f2:	61 f4       	brne	.+24     	; 0x150c <main+0x58e>
				break;
    14f4:	10 92 83 05 	sts	0x0583, r1	; 0x800583 <up_key_press>
				
				// Draw Steel
				case selSteel:
				if(up_key_press==1){
    14f8:	80 91 00 01 	lds	r24, 0x0100	; 0x800100 <__data_start>
    14fc:	90 91 01 01 	lds	r25, 0x0101	; 0x800101 <__data_start+0x1>
					up_key_press=0;
					stlCali++;
    1500:	01 96       	adiw	r24, 0x01	; 1
    1502:	90 93 01 01 	sts	0x0101, r25	; 0x800101 <__data_start+0x1>
    1506:	80 93 00 01 	sts	0x0100, r24	; 0x800100 <__data_start>
    150a:	0f c0       	rjmp	.+30     	; 0x152a <main+0x5ac>
    150c:	80 91 84 05 	lds	r24, 0x0584	; 0x800584 <down_key_press>
    1510:	81 30       	cpi	r24, 0x01	; 1
    1512:	59 f4       	brne	.+22     	; 0x152a <main+0x5ac>
					}else if(down_key_press==1){
    1514:	10 92 84 05 	sts	0x0584, r1	; 0x800584 <down_key_press>
    1518:	80 91 00 01 	lds	r24, 0x0100	; 0x800100 <__data_start>
					down_key_press=0;
    151c:	90 91 01 01 	lds	r25, 0x0101	; 0x800101 <__data_start+0x1>
					stlCali--;
    1520:	01 97       	sbiw	r24, 0x01	; 1
    1522:	90 93 01 01 	sts	0x0101, r25	; 0x800101 <__data_start+0x1>
    1526:	80 93 00 01 	sts	0x0100, r24	; 0x800100 <__data_start>
    152a:	80 91 00 01 	lds	r24, 0x0100	; 0x800100 <__data_start>
    152e:	90 91 01 01 	lds	r25, 0x0101	; 0x800101 <__data_start+0x1>
				}
				drawSteelCali(stlCali);
    1532:	1d db       	rcall	.-2502   	; 0xb6e <drawSteelCali>
    1534:	80 91 88 05 	lds	r24, 0x0588	; 0x800588 <menuState>
    1538:	9d cd       	rjmp	.-1222   	; 0x1074 <main+0xf6>

0000153a <__vector_1>:
    153a:	1f 92       	push	r1
    153c:	0f 92       	push	r0
				break;
				
			}// end switch
		}//end menuState 4	
		if (menuState==5){
    153e:	0f b6       	in	r0, 0x3f	; 63
    1540:	0f 92       	push	r0
			//
		}	
	}
    1542:	11 24       	eor	r1, r1
}

/**********INTERRUPT SERVICE ROUTINES**********/

ISR(INT0_vect){ // on PD0; taken for LCD Screen
}
    1544:	0f 90       	pop	r0
    1546:	0f be       	out	0x3f, r0	; 63
    1548:	0f 90       	pop	r0
    154a:	1f 90       	pop	r1
    154c:	18 95       	reti

0000154e <__vector_2>:
ISR(INT1_vect){ // on PD1; taken for LCD Screen
    154e:	1f 92       	push	r1
    1550:	0f 92       	push	r0
    1552:	0f b6       	in	r0, 0x3f	; 63
    1554:	0f 92       	push	r0
    1556:	11 24       	eor	r1, r1
}
    1558:	0f 90       	pop	r0
    155a:	0f be       	out	0x3f, r0	; 63
    155c:	0f 90       	pop	r0
    155e:	1f 90       	pop	r1
    1560:	18 95       	reti

00001562 <__vector_3>:
/*sensor 1: OI: 1st Optical-Inductive-Near Inductive sensor*/
ISR(INT2_vect){ // on PD2; active low; triggered on rising-edge
    1562:	1f 92       	push	r1
    1564:	0f 92       	push	r0
    1566:	0f b6       	in	r0, 0x3f	; 63
    1568:	0f 92       	push	r0
    156a:	11 24       	eor	r1, r1
    156c:	8f 93       	push	r24
    156e:	9f 93       	push	r25
	OI_Count+=1;
    1570:	80 91 28 07 	lds	r24, 0x0728	; 0x800728 <OI_Count>
    1574:	90 91 29 07 	lds	r25, 0x0729	; 0x800729 <OI_Count+0x1>
    1578:	01 96       	adiw	r24, 0x01	; 1
    157a:	90 93 29 07 	sts	0x0729, r25	; 0x800729 <OI_Count+0x1>
    157e:	80 93 28 07 	sts	0x0728, r24	; 0x800728 <OI_Count>
	OIRL_Count+=1;
    1582:	80 91 8a 05 	lds	r24, 0x058A	; 0x80058a <OIRL_Count>
    1586:	90 91 8b 05 	lds	r25, 0x058B	; 0x80058b <OIRL_Count+0x1>
    158a:	01 96       	adiw	r24, 0x01	; 1
    158c:	90 93 8b 05 	sts	0x058B, r25	; 0x80058b <OIRL_Count+0x1>
    1590:	80 93 8a 05 	sts	0x058A, r24	; 0x80058a <OIRL_Count>
}
    1594:	9f 91       	pop	r25
    1596:	8f 91       	pop	r24
    1598:	0f 90       	pop	r0
    159a:	0f be       	out	0x3f, r0	; 63
    159c:	0f 90       	pop	r0
    159e:	1f 90       	pop	r1
    15a0:	18 95       	reti

000015a2 <__vector_4>:
/*sensor 2: IN: Inductive sensor*/
ISR(INT3_vect){ //on PD3; active low; triggered on falling-edge
    15a2:	1f 92       	push	r1
    15a4:	0f 92       	push	r0
    15a6:	0f b6       	in	r0, 0x3f	; 63
    15a8:	0f 92       	push	r0
    15aa:	11 24       	eor	r1, r1
    15ac:	8f 93       	push	r24
	inductiveFlag=0x01;
    15ae:	81 e0       	ldi	r24, 0x01	; 1
    15b0:	80 93 0f 06 	sts	0x060F, r24	; 0x80060f <inductiveFlag>
}
    15b4:	8f 91       	pop	r24
    15b6:	0f 90       	pop	r0
    15b8:	0f be       	out	0x3f, r0	; 63
    15ba:	0f 90       	pop	r0
    15bc:	1f 90       	pop	r1
    15be:	18 95       	reti

000015c0 <__vector_7>:
/*sensor 3: OR: 2nd Optical-Reflective-Near Reflective sensor*/
ISR(INT6_vect){ // on PD6; active high; triggered on rising-edge
    15c0:	1f 92       	push	r1
    15c2:	0f 92       	push	r0
    15c4:	0f b6       	in	r0, 0x3f	; 63
    15c6:	0f 92       	push	r0
    15c8:	11 24       	eor	r1, r1
    15ca:	0b b6       	in	r0, 0x3b	; 59
    15cc:	0f 92       	push	r0
    15ce:	8f 93       	push	r24
    15d0:	9f 93       	push	r25
    15d2:	ef 93       	push	r30
    15d4:	ff 93       	push	r31
	lowADC=0xFFFF;
    15d6:	8f ef       	ldi	r24, 0xFF	; 255
    15d8:	9f ef       	ldi	r25, 0xFF	; 255
    15da:	90 93 27 07 	sts	0x0727, r25	; 0x800727 <lowADC+0x1>
    15de:	80 93 26 07 	sts	0x0726, r24	; 0x800726 <lowADC>
	ADCSRA|= _BV(ADSC); //trigger ADC (i.e. begin ADC conversion)
    15e2:	ea e7       	ldi	r30, 0x7A	; 122
    15e4:	f0 e0       	ldi	r31, 0x00	; 0
    15e6:	80 81       	ld	r24, Z
    15e8:	80 64       	ori	r24, 0x40	; 64
    15ea:	80 83       	st	Z, r24
	//OR_Count+=1;	
	//ADCCompleteFlag=0x00; // tell system ADC conversions are occurring
}
    15ec:	ff 91       	pop	r31
    15ee:	ef 91       	pop	r30
    15f0:	9f 91       	pop	r25
    15f2:	8f 91       	pop	r24
    15f4:	0f 90       	pop	r0
    15f6:	0b be       	out	0x3b, r0	; 59
    15f8:	0f 90       	pop	r0
    15fa:	0f be       	out	0x3f, r0	; 63
    15fc:	0f 90       	pop	r0
    15fe:	1f 90       	pop	r1
    1600:	18 95       	reti

00001602 <__vector_8>:
/*sensor 5: EX: 3rd Optical-Near exit of conveyor*/
ISR(INT7_vect){ //on PE7; active low; triggered on falling-edge
    1602:	1f 92       	push	r1
    1604:	0f 92       	push	r0
    1606:	0f b6       	in	r0, 0x3f	; 63
    1608:	0f 92       	push	r0
    160a:	11 24       	eor	r1, r1
    160c:	8f 93       	push	r24
	optExitFlag=0x01;
    160e:	81 e0       	ldi	r24, 0x01	; 1
    1610:	80 93 2a 07 	sts	0x072A, r24	; 0x80072a <optExitFlag>
}
    1614:	8f 91       	pop	r24
    1616:	0f 90       	pop	r0
    1618:	0f be       	out	0x3f, r0	; 63
    161a:	0f 90       	pop	r0
    161c:	1f 90       	pop	r1
    161e:	18 95       	reti

00001620 <__vector_29>:
/*ADC ISR: triggered when ADC is completed*/
ISR(ADC_vect){
    1620:	1f 92       	push	r1
    1622:	0f 92       	push	r0
    1624:	0f b6       	in	r0, 0x3f	; 63
    1626:	0f 92       	push	r0
    1628:	11 24       	eor	r1, r1
    162a:	0b b6       	in	r0, 0x3b	; 59
    162c:	0f 92       	push	r0
    162e:	2f 93       	push	r18
    1630:	3f 93       	push	r19
    1632:	8f 93       	push	r24
    1634:	9f 93       	push	r25
    1636:	ef 93       	push	r30
    1638:	ff 93       	push	r31
	if (lowADC>ADC){ //if ADC result is still decreasing (i.e. if object's reflectivity is increasing)
    163a:	20 91 78 00 	lds	r18, 0x0078	; 0x800078 <__TEXT_REGION_LENGTH__+0x7e0078>
    163e:	30 91 79 00 	lds	r19, 0x0079	; 0x800079 <__TEXT_REGION_LENGTH__+0x7e0079>
    1642:	80 91 26 07 	lds	r24, 0x0726	; 0x800726 <lowADC>
    1646:	90 91 27 07 	lds	r25, 0x0727	; 0x800727 <lowADC+0x1>
    164a:	28 17       	cp	r18, r24
    164c:	39 07       	cpc	r19, r25
    164e:	48 f5       	brcc	.+82     	; 0x16a2 <__vector_29+0x82>
		lowADC=ADC; //ADC holds the entire 10 bit value in a 16bit variable; lowADC set for future comparison
    1650:	80 91 78 00 	lds	r24, 0x0078	; 0x800078 <__TEXT_REGION_LENGTH__+0x7e0078>
    1654:	90 91 79 00 	lds	r25, 0x0079	; 0x800079 <__TEXT_REGION_LENGTH__+0x7e0079>
    1658:	90 93 27 07 	sts	0x0727, r25	; 0x800727 <lowADC+0x1>
    165c:	80 93 26 07 	sts	0x0726, r24	; 0x800726 <lowADC>
		lowADCArray[ADCFilterCount]=lowADC;
    1660:	e0 91 96 06 	lds	r30, 0x0696	; 0x800696 <ADCFilterCount>
    1664:	f0 91 97 06 	lds	r31, 0x0697	; 0x800697 <ADCFilterCount+0x1>
    1668:	80 91 26 07 	lds	r24, 0x0726	; 0x800726 <lowADC>
    166c:	90 91 27 07 	lds	r25, 0x0727	; 0x800727 <lowADC+0x1>
    1670:	ee 0f       	add	r30, r30
    1672:	ff 1f       	adc	r31, r31
    1674:	e6 56       	subi	r30, 0x66	; 102
    1676:	f9 4f       	sbci	r31, 0xF9	; 249
    1678:	91 83       	std	Z+1, r25	; 0x01
    167a:	80 83       	st	Z, r24
		ADCFilterCount++; //increment array location being set
    167c:	80 91 96 06 	lds	r24, 0x0696	; 0x800696 <ADCFilterCount>
    1680:	90 91 97 06 	lds	r25, 0x0697	; 0x800697 <ADCFilterCount+0x1>
    1684:	01 96       	adiw	r24, 0x01	; 1
    1686:	90 93 97 06 	sts	0x0697, r25	; 0x800697 <ADCFilterCount+0x1>
    168a:	80 93 96 06 	sts	0x0696, r24	; 0x800696 <ADCFilterCount>
		//ADCFilterCount&=0b00000111; //modulus of 8
		//ADCFilterCount&=0b00001111; //modulus of 16
		//ADCFilterCount&=0b00011111; //modulus of 32
		ADCFilterCount&=0b000000011; //modulus of 4
    168e:	80 91 96 06 	lds	r24, 0x0696	; 0x800696 <ADCFilterCount>
    1692:	90 91 97 06 	lds	r25, 0x0697	; 0x800697 <ADCFilterCount+0x1>
    1696:	83 70       	andi	r24, 0x03	; 3
    1698:	99 27       	eor	r25, r25
    169a:	90 93 97 06 	sts	0x0697, r25	; 0x800697 <ADCFilterCount+0x1>
    169e:	80 93 96 06 	sts	0x0696, r24	; 0x800696 <ADCFilterCount>
		//highByteADC=ADCH;
		//lowByteADC=ADCL;
	}
	if (PINE&0b01000000) ADCSRA|= _BV(ADSC); //if there is still an object in OR beam keep initializing ADC conversions
    16a2:	66 9b       	sbis	0x0c, 6	; 12
    16a4:	06 c0       	rjmp	.+12     	; 0x16b2 <__vector_29+0x92>
    16a6:	ea e7       	ldi	r30, 0x7A	; 122
    16a8:	f0 e0       	ldi	r31, 0x00	; 0
    16aa:	80 81       	ld	r24, Z
    16ac:	80 64       	ori	r24, 0x40	; 64
    16ae:	80 83       	st	Z, r24
    16b0:	03 c0       	rjmp	.+6      	; 0x16b8 <__vector_29+0x98>
	//if (ADC<(lowADC+40)) ADCSRA|= _BV(ADSC); //if there is still an object keep initializing ADC conversions
	else ADCResultFlag = 1;
    16b2:	81 e0       	ldi	r24, 0x01	; 1
    16b4:	80 93 11 06 	sts	0x0611, r24	; 0x800611 <ADCResultFlag>
}
    16b8:	ff 91       	pop	r31
    16ba:	ef 91       	pop	r30
    16bc:	9f 91       	pop	r25
    16be:	8f 91       	pop	r24
    16c0:	3f 91       	pop	r19
    16c2:	2f 91       	pop	r18
    16c4:	0f 90       	pop	r0
    16c6:	0b be       	out	0x3b, r0	; 59
    16c8:	0f 90       	pop	r0
    16ca:	0f be       	out	0x3f, r0	; 63
    16cc:	0f 90       	pop	r0
    16ce:	1f 90       	pop	r1
    16d0:	18 95       	reti

000016d2 <__vector_5>:
// Joystick - Right
ISR(INT4_vect){ //on PD3; active low
    16d2:	1f 92       	push	r1
    16d4:	0f 92       	push	r0
    16d6:	0f b6       	in	r0, 0x3f	; 63
    16d8:	0f 92       	push	r0
    16da:	11 24       	eor	r1, r1
    16dc:	8f 93       	push	r24
	right_key_press=1;
    16de:	81 e0       	ldi	r24, 0x01	; 1
    16e0:	80 93 86 05 	sts	0x0586, r24	; 0x800586 <right_key_press>
}
    16e4:	8f 91       	pop	r24
    16e6:	0f 90       	pop	r0
    16e8:	0f be       	out	0x3f, r0	; 63
    16ea:	0f 90       	pop	r0
    16ec:	1f 90       	pop	r1
    16ee:	18 95       	reti

000016f0 <__vector_6>:

// Joystick - Down
ISR(INT5_vect){ //on PE4; active low
    16f0:	1f 92       	push	r1
    16f2:	0f 92       	push	r0
    16f4:	0f b6       	in	r0, 0x3f	; 63
    16f6:	0f 92       	push	r0
    16f8:	11 24       	eor	r1, r1
    16fa:	8f 93       	push	r24
	//PORTC ^= _BV(PC6);
	down_key_press=1;
    16fc:	81 e0       	ldi	r24, 0x01	; 1
    16fe:	80 93 84 05 	sts	0x0584, r24	; 0x800584 <down_key_press>
}
    1702:	8f 91       	pop	r24
    1704:	0f 90       	pop	r0
    1706:	0f be       	out	0x3f, r0	; 63
    1708:	0f 90       	pop	r0
    170a:	1f 90       	pop	r1
    170c:	18 95       	reti

0000170e <__vector_9>:

ISR(PCINT0_vect){
    170e:	1f 92       	push	r1
    1710:	0f 92       	push	r0
    1712:	0f b6       	in	r0, 0x3f	; 63
    1714:	0f 92       	push	r0
    1716:	11 24       	eor	r1, r1
    1718:	8f 93       	push	r24
    171a:	9f 93       	push	r25
	uint8_t changedbits;
	changedbits = PINB ^ portbhistory;
    171c:	93 b1       	in	r25, 0x03	; 3
    171e:	80 91 08 01 	lds	r24, 0x0108	; 0x800108 <portbhistory>
    1722:	89 27       	eor	r24, r25
	portbhistory = PINB;
    1724:	93 b1       	in	r25, 0x03	; 3
    1726:	90 93 08 01 	sts	0x0108, r25	; 0x800108 <portbhistory>
	// Joystick UP - PORTB7
	if(changedbits & (1 << PB7)) up_key_press=1;
    172a:	88 23       	and	r24, r24
    172c:	1c f4       	brge	.+6      	; 0x1734 <__vector_9+0x26>
    172e:	91 e0       	ldi	r25, 0x01	; 1
    1730:	90 93 83 05 	sts	0x0583, r25	; 0x800583 <up_key_press>
	// Joystick LEFT - PORTB6
	if(changedbits & (1 << PB6)) left_key_press=1;
    1734:	86 ff       	sbrs	r24, 6
    1736:	03 c0       	rjmp	.+6      	; 0x173e <__vector_9+0x30>
    1738:	91 e0       	ldi	r25, 0x01	; 1
    173a:	90 93 85 05 	sts	0x0585, r25	; 0x800585 <left_key_press>
	// Joystick SELECT - PORTB5
	if(changedbits & (1 << PB5)) if(menuState==3) menuState = 4;
    173e:	85 ff       	sbrs	r24, 5
    1740:	07 c0       	rjmp	.+14     	; 0x1750 <__vector_9+0x42>
    1742:	90 91 88 05 	lds	r25, 0x0588	; 0x800588 <menuState>
    1746:	93 30       	cpi	r25, 0x03	; 3
    1748:	19 f4       	brne	.+6      	; 0x1750 <__vector_9+0x42>
    174a:	94 e0       	ldi	r25, 0x04	; 4
    174c:	90 93 88 05 	sts	0x0588, r25	; 0x800588 <menuState>
	// Calibrate Screen Button - PORTB3
	if(changedbits & (1 << PB3)) menuState = 3;	
    1750:	83 ff       	sbrs	r24, 3
    1752:	03 c0       	rjmp	.+6      	; 0x175a <__vector_9+0x4c>
    1754:	93 e0       	ldi	r25, 0x03	; 3
    1756:	90 93 88 05 	sts	0x0588, r25	; 0x800588 <menuState>
	// Ramp Down - PORTB2
	if(changedbits & (1 << PB2))
    175a:	82 ff       	sbrs	r24, 2
    175c:	06 c0       	rjmp	.+12     	; 0x176a <__vector_9+0x5c>
	{
		rampDownSet = 1;
    175e:	91 e0       	ldi	r25, 0x01	; 1
    1760:	90 93 87 05 	sts	0x0587, r25	; 0x800587 <rampDownSet>
		menuState = 2;
    1764:	92 e0       	ldi	r25, 0x02	; 2
    1766:	90 93 88 05 	sts	0x0588, r25	; 0x800588 <menuState>
	}	
	// Pause/Resume Button - PORTB1
	if(changedbits & (1 << PB1))
    176a:	81 ff       	sbrs	r24, 1
    176c:	0d c0       	rjmp	.+26     	; 0x1788 <__vector_9+0x7a>
	{
		if(programPause==0)menuState = 0; 
    176e:	80 91 89 05 	lds	r24, 0x0589	; 0x800589 <programPause>
    1772:	81 11       	cpse	r24, r1
    1774:	03 c0       	rjmp	.+6      	; 0x177c <__vector_9+0x6e>
    1776:	10 92 88 05 	sts	0x0588, r1	; 0x800588 <menuState>
    177a:	06 c0       	rjmp	.+12     	; 0x1788 <__vector_9+0x7a>
		else if(programPause==1) menuState = 1;
    177c:	80 91 89 05 	lds	r24, 0x0589	; 0x800589 <programPause>
    1780:	81 30       	cpi	r24, 0x01	; 1
    1782:	11 f4       	brne	.+4      	; 0x1788 <__vector_9+0x7a>
    1784:	80 93 88 05 	sts	0x0588, r24	; 0x800588 <menuState>
	}	
}// End PCINT0
    1788:	9f 91       	pop	r25
    178a:	8f 91       	pop	r24
    178c:	0f 90       	pop	r0
    178e:	0f be       	out	0x3f, r0	; 63
    1790:	0f 90       	pop	r0
    1792:	1f 90       	pop	r1
    1794:	18 95       	reti

00001796 <sendCommand>:
void invert(uint8_t inverted)
{
	    if (inverted) {
        sendCommand(SSD1306_INVERTDISPLAY);
    } else {
        sendCommand(SSD1306_NORMALDISPLAY);
    1796:	cf 93       	push	r28
    1798:	c8 2f       	mov	r28, r24
    179a:	88 e7       	ldi	r24, 0x78	; 120
    179c:	03 da       	rcall	.-3066   	; 0xba4 <i2cStart>
    179e:	80 e0       	ldi	r24, 0x00	; 0
    17a0:	28 da       	rcall	.-2992   	; 0xbf2 <i2cWrite>
    17a2:	8c 2f       	mov	r24, r28
    17a4:	26 da       	rcall	.-2996   	; 0xbf2 <i2cWrite>
    17a6:	37 da       	rcall	.-2962   	; 0xc16 <i2cStop>
    17a8:	cf 91       	pop	r28
    17aa:	08 95       	ret

000017ac <SSD1306Init>:
    17ac:	8e ea       	ldi	r24, 0xAE	; 174
    17ae:	f3 df       	rcall	.-26     	; 0x1796 <sendCommand>
    17b0:	85 ed       	ldi	r24, 0xD5	; 213
    17b2:	f1 df       	rcall	.-30     	; 0x1796 <sendCommand>
    17b4:	80 e8       	ldi	r24, 0x80	; 128
    17b6:	ef df       	rcall	.-34     	; 0x1796 <sendCommand>
    17b8:	88 ea       	ldi	r24, 0xA8	; 168
    17ba:	ed df       	rcall	.-38     	; 0x1796 <sendCommand>
    17bc:	8f e3       	ldi	r24, 0x3F	; 63
    17be:	eb df       	rcall	.-42     	; 0x1796 <sendCommand>
    17c0:	83 ed       	ldi	r24, 0xD3	; 211
    17c2:	e9 df       	rcall	.-46     	; 0x1796 <sendCommand>
    17c4:	80 e0       	ldi	r24, 0x00	; 0
    17c6:	e7 df       	rcall	.-50     	; 0x1796 <sendCommand>
    17c8:	80 e4       	ldi	r24, 0x40	; 64
    17ca:	e5 df       	rcall	.-54     	; 0x1796 <sendCommand>
    17cc:	8d e8       	ldi	r24, 0x8D	; 141
    17ce:	e3 df       	rcall	.-58     	; 0x1796 <sendCommand>
    17d0:	84 e1       	ldi	r24, 0x14	; 20
    17d2:	e1 df       	rcall	.-62     	; 0x1796 <sendCommand>
    17d4:	80 e2       	ldi	r24, 0x20	; 32
    17d6:	df df       	rcall	.-66     	; 0x1796 <sendCommand>
    17d8:	80 e0       	ldi	r24, 0x00	; 0
    17da:	dd df       	rcall	.-70     	; 0x1796 <sendCommand>
    17dc:	81 ea       	ldi	r24, 0xA1	; 161
    17de:	db df       	rcall	.-74     	; 0x1796 <sendCommand>
    17e0:	88 ec       	ldi	r24, 0xC8	; 200
    17e2:	d9 df       	rcall	.-78     	; 0x1796 <sendCommand>
    17e4:	8a ed       	ldi	r24, 0xDA	; 218
    17e6:	d7 df       	rcall	.-82     	; 0x1796 <sendCommand>
    17e8:	82 e1       	ldi	r24, 0x12	; 18
    17ea:	d5 df       	rcall	.-86     	; 0x1796 <sendCommand>
    17ec:	81 e8       	ldi	r24, 0x81	; 129
    17ee:	d3 df       	rcall	.-90     	; 0x1796 <sendCommand>
    17f0:	8f ec       	ldi	r24, 0xCF	; 207
    17f2:	d1 df       	rcall	.-94     	; 0x1796 <sendCommand>
    17f4:	89 ed       	ldi	r24, 0xD9	; 217
    17f6:	cf df       	rcall	.-98     	; 0x1796 <sendCommand>
    17f8:	81 ef       	ldi	r24, 0xF1	; 241
    17fa:	cd df       	rcall	.-102    	; 0x1796 <sendCommand>
    17fc:	8b ed       	ldi	r24, 0xDB	; 219
    17fe:	cb df       	rcall	.-106    	; 0x1796 <sendCommand>
    1800:	80 e4       	ldi	r24, 0x40	; 64
    1802:	c9 df       	rcall	.-110    	; 0x1796 <sendCommand>
    1804:	84 ea       	ldi	r24, 0xA4	; 164
    1806:	c7 df       	rcall	.-114    	; 0x1796 <sendCommand>
    1808:	86 ea       	ldi	r24, 0xA6	; 166
    180a:	c5 df       	rcall	.-118    	; 0x1796 <sendCommand>
    180c:	8f ea       	ldi	r24, 0xAF	; 175
    180e:	c3 cf       	rjmp	.-122    	; 0x1796 <sendCommand>
    1810:	08 95       	ret

00001812 <sendFramebuffer>:
    }
}


void sendFramebuffer(uint8_t *buffer) 
{
    1812:	ef 92       	push	r14
    1814:	ff 92       	push	r15
    1816:	0f 93       	push	r16
    1818:	1f 93       	push	r17
    181a:	cf 93       	push	r28
    181c:	df 93       	push	r29
    181e:	7c 01       	movw	r14, r24
    sendCommand(SSD1306_COLUMNADDR);
    1820:	81 e2       	ldi	r24, 0x21	; 33
    1822:	b9 df       	rcall	.-142    	; 0x1796 <sendCommand>
    sendCommand(0x00);
    1824:	80 e0       	ldi	r24, 0x00	; 0
    1826:	b7 df       	rcall	.-146    	; 0x1796 <sendCommand>
    sendCommand(0x7F);
    1828:	8f e7       	ldi	r24, 0x7F	; 127
    182a:	b5 df       	rcall	.-150    	; 0x1796 <sendCommand>

    sendCommand(SSD1306_PAGEADDR);
    182c:	82 e2       	ldi	r24, 0x22	; 34
    182e:	b3 df       	rcall	.-154    	; 0x1796 <sendCommand>
    sendCommand(0x00);
    1830:	80 e0       	ldi	r24, 0x00	; 0
    1832:	b1 df       	rcall	.-158    	; 0x1796 <sendCommand>
    1834:	87 e0       	ldi	r24, 0x07	; 7
    sendCommand(0x07);
    1836:	af df       	rcall	.-162    	; 0x1796 <sendCommand>
    1838:	e7 01       	movw	r28, r14
    183a:	8c ef       	ldi	r24, 0xFC	; 252
    183c:	f8 1a       	sub	r15, r24

    // We have to send the buffer as 16 bytes packets
    // Our buffer is 1024 bytes long, 1024/16 = 64
    // We have to send 64 packets
    for (uint8_t packet = 0; packet < 64; packet++) { //*** change to 32? was 64
        i2cStart(SSD1306_DEFAULT_ADDRESS);
    183e:	88 e7       	ldi	r24, 0x78	; 120
    1840:	b1 d9       	rcall	.-3230   	; 0xba4 <i2cStart>
        i2cWrite(0x40);
    1842:	80 e4       	ldi	r24, 0x40	; 64
    1844:	d6 d9       	rcall	.-3156   	; 0xbf2 <i2cWrite>
    1846:	8e 01       	movw	r16, r28
    1848:	00 5f       	subi	r16, 0xF0	; 240
    184a:	1f 4f       	sbci	r17, 0xFF	; 255
		
        for (uint8_t packet_byte = 0; packet_byte < 16; ++packet_byte) 
		{
            i2cWrite(buffer[packet*16+packet_byte]);
    184c:	89 91       	ld	r24, Y+
    184e:	d1 d9       	rcall	.-3166   	; 0xbf2 <i2cWrite>
    1850:	c0 17       	cp	r28, r16
    // We have to send 64 packets
    for (uint8_t packet = 0; packet < 64; packet++) { //*** change to 32? was 64
        i2cStart(SSD1306_DEFAULT_ADDRESS);
        i2cWrite(0x40);
		
        for (uint8_t packet_byte = 0; packet_byte < 16; ++packet_byte) 
    1852:	d1 07       	cpc	r29, r17
    1854:	d9 f7       	brne	.-10     	; 0x184c <sendFramebuffer+0x3a>
    1856:	df d9       	rcall	.-3138   	; 0xc16 <i2cStop>
		{
            i2cWrite(buffer[packet*16+packet_byte]);
        }
        i2cStop();
    1858:	e8 01       	movw	r28, r16
    185a:	0e 15       	cp	r16, r14
    185c:	1f 05       	cpc	r17, r15
    sendCommand(0x07);

    // We have to send the buffer as 16 bytes packets
    // Our buffer is 1024 bytes long, 1024/16 = 64
    // We have to send 64 packets
    for (uint8_t packet = 0; packet < 64; packet++) { //*** change to 32? was 64
    185e:	79 f7       	brne	.-34     	; 0x183e <sendFramebuffer+0x2c>
    1860:	df 91       	pop	r29
    1862:	cf 91       	pop	r28
		{
            i2cWrite(buffer[packet*16+packet_byte]);
        }
        i2cStop();
    }
}
    1864:	1f 91       	pop	r17
    1866:	0f 91       	pop	r16
    1868:	ff 90       	pop	r15
    186a:	ef 90       	pop	r14
    186c:	08 95       	ret

0000186e <__fixunssfsi>:
    186e:	70 d0       	rcall	.+224    	; 0x1950 <__fp_splitA>
    1870:	88 f0       	brcs	.+34     	; 0x1894 <__fixunssfsi+0x26>
    1872:	9f 57       	subi	r25, 0x7F	; 127
    1874:	90 f0       	brcs	.+36     	; 0x189a <__fixunssfsi+0x2c>
    1876:	b9 2f       	mov	r27, r25
    1878:	99 27       	eor	r25, r25
    187a:	b7 51       	subi	r27, 0x17	; 23
    187c:	a0 f0       	brcs	.+40     	; 0x18a6 <__fixunssfsi+0x38>
    187e:	d1 f0       	breq	.+52     	; 0x18b4 <__fixunssfsi+0x46>
    1880:	66 0f       	add	r22, r22
    1882:	77 1f       	adc	r23, r23
    1884:	88 1f       	adc	r24, r24
    1886:	99 1f       	adc	r25, r25
    1888:	1a f0       	brmi	.+6      	; 0x1890 <__fixunssfsi+0x22>
    188a:	ba 95       	dec	r27
    188c:	c9 f7       	brne	.-14     	; 0x1880 <__fixunssfsi+0x12>
    188e:	12 c0       	rjmp	.+36     	; 0x18b4 <__fixunssfsi+0x46>
    1890:	b1 30       	cpi	r27, 0x01	; 1
    1892:	81 f0       	breq	.+32     	; 0x18b4 <__fixunssfsi+0x46>
    1894:	77 d0       	rcall	.+238    	; 0x1984 <__fp_zero>
    1896:	b1 e0       	ldi	r27, 0x01	; 1
    1898:	08 95       	ret
    189a:	74 c0       	rjmp	.+232    	; 0x1984 <__fp_zero>
    189c:	67 2f       	mov	r22, r23
    189e:	78 2f       	mov	r23, r24
    18a0:	88 27       	eor	r24, r24
    18a2:	b8 5f       	subi	r27, 0xF8	; 248
    18a4:	39 f0       	breq	.+14     	; 0x18b4 <__fixunssfsi+0x46>
    18a6:	b9 3f       	cpi	r27, 0xF9	; 249
    18a8:	cc f3       	brlt	.-14     	; 0x189c <__fixunssfsi+0x2e>
    18aa:	86 95       	lsr	r24
    18ac:	77 95       	ror	r23
    18ae:	67 95       	ror	r22
    18b0:	b3 95       	inc	r27
    18b2:	d9 f7       	brne	.-10     	; 0x18aa <__fixunssfsi+0x3c>
    18b4:	3e f4       	brtc	.+14     	; 0x18c4 <__fixunssfsi+0x56>
    18b6:	90 95       	com	r25
    18b8:	80 95       	com	r24
    18ba:	70 95       	com	r23
    18bc:	61 95       	neg	r22
    18be:	7f 4f       	sbci	r23, 0xFF	; 255
    18c0:	8f 4f       	sbci	r24, 0xFF	; 255
    18c2:	9f 4f       	sbci	r25, 0xFF	; 255
    18c4:	08 95       	ret

000018c6 <__floatunsisf>:
    18c6:	e8 94       	clt
    18c8:	09 c0       	rjmp	.+18     	; 0x18dc <__floatsisf+0x12>

000018ca <__floatsisf>:
    18ca:	97 fb       	bst	r25, 7
    18cc:	3e f4       	brtc	.+14     	; 0x18dc <__floatsisf+0x12>
    18ce:	90 95       	com	r25
    18d0:	80 95       	com	r24
    18d2:	70 95       	com	r23
    18d4:	61 95       	neg	r22
    18d6:	7f 4f       	sbci	r23, 0xFF	; 255
    18d8:	8f 4f       	sbci	r24, 0xFF	; 255
    18da:	9f 4f       	sbci	r25, 0xFF	; 255
    18dc:	99 23       	and	r25, r25
    18de:	a9 f0       	breq	.+42     	; 0x190a <__floatsisf+0x40>
    18e0:	f9 2f       	mov	r31, r25
    18e2:	96 e9       	ldi	r25, 0x96	; 150
    18e4:	bb 27       	eor	r27, r27
    18e6:	93 95       	inc	r25
    18e8:	f6 95       	lsr	r31
    18ea:	87 95       	ror	r24
    18ec:	77 95       	ror	r23
    18ee:	67 95       	ror	r22
    18f0:	b7 95       	ror	r27
    18f2:	f1 11       	cpse	r31, r1
    18f4:	f8 cf       	rjmp	.-16     	; 0x18e6 <__floatsisf+0x1c>
    18f6:	fa f4       	brpl	.+62     	; 0x1936 <__floatsisf+0x6c>
    18f8:	bb 0f       	add	r27, r27
    18fa:	11 f4       	brne	.+4      	; 0x1900 <__floatsisf+0x36>
    18fc:	60 ff       	sbrs	r22, 0
    18fe:	1b c0       	rjmp	.+54     	; 0x1936 <__floatsisf+0x6c>
    1900:	6f 5f       	subi	r22, 0xFF	; 255
    1902:	7f 4f       	sbci	r23, 0xFF	; 255
    1904:	8f 4f       	sbci	r24, 0xFF	; 255
    1906:	9f 4f       	sbci	r25, 0xFF	; 255
    1908:	16 c0       	rjmp	.+44     	; 0x1936 <__floatsisf+0x6c>
    190a:	88 23       	and	r24, r24
    190c:	11 f0       	breq	.+4      	; 0x1912 <__floatsisf+0x48>
    190e:	96 e9       	ldi	r25, 0x96	; 150
    1910:	11 c0       	rjmp	.+34     	; 0x1934 <__floatsisf+0x6a>
    1912:	77 23       	and	r23, r23
    1914:	21 f0       	breq	.+8      	; 0x191e <__floatsisf+0x54>
    1916:	9e e8       	ldi	r25, 0x8E	; 142
    1918:	87 2f       	mov	r24, r23
    191a:	76 2f       	mov	r23, r22
    191c:	05 c0       	rjmp	.+10     	; 0x1928 <__floatsisf+0x5e>
    191e:	66 23       	and	r22, r22
    1920:	71 f0       	breq	.+28     	; 0x193e <__floatsisf+0x74>
    1922:	96 e8       	ldi	r25, 0x86	; 134
    1924:	86 2f       	mov	r24, r22
    1926:	70 e0       	ldi	r23, 0x00	; 0
    1928:	60 e0       	ldi	r22, 0x00	; 0
    192a:	2a f0       	brmi	.+10     	; 0x1936 <__floatsisf+0x6c>
    192c:	9a 95       	dec	r25
    192e:	66 0f       	add	r22, r22
    1930:	77 1f       	adc	r23, r23
    1932:	88 1f       	adc	r24, r24
    1934:	da f7       	brpl	.-10     	; 0x192c <__floatsisf+0x62>
    1936:	88 0f       	add	r24, r24
    1938:	96 95       	lsr	r25
    193a:	87 95       	ror	r24
    193c:	97 f9       	bld	r25, 7
    193e:	08 95       	ret

00001940 <__fp_split3>:
    1940:	57 fd       	sbrc	r21, 7
    1942:	90 58       	subi	r25, 0x80	; 128
    1944:	44 0f       	add	r20, r20
    1946:	55 1f       	adc	r21, r21
    1948:	59 f0       	breq	.+22     	; 0x1960 <__fp_splitA+0x10>
    194a:	5f 3f       	cpi	r21, 0xFF	; 255
    194c:	71 f0       	breq	.+28     	; 0x196a <__fp_splitA+0x1a>
    194e:	47 95       	ror	r20

00001950 <__fp_splitA>:
    1950:	88 0f       	add	r24, r24
    1952:	97 fb       	bst	r25, 7
    1954:	99 1f       	adc	r25, r25
    1956:	61 f0       	breq	.+24     	; 0x1970 <__fp_splitA+0x20>
    1958:	9f 3f       	cpi	r25, 0xFF	; 255
    195a:	79 f0       	breq	.+30     	; 0x197a <__fp_splitA+0x2a>
    195c:	87 95       	ror	r24
    195e:	08 95       	ret
    1960:	12 16       	cp	r1, r18
    1962:	13 06       	cpc	r1, r19
    1964:	14 06       	cpc	r1, r20
    1966:	55 1f       	adc	r21, r21
    1968:	f2 cf       	rjmp	.-28     	; 0x194e <__fp_split3+0xe>
    196a:	46 95       	lsr	r20
    196c:	f1 df       	rcall	.-30     	; 0x1950 <__fp_splitA>
    196e:	08 c0       	rjmp	.+16     	; 0x1980 <__fp_splitA+0x30>
    1970:	16 16       	cp	r1, r22
    1972:	17 06       	cpc	r1, r23
    1974:	18 06       	cpc	r1, r24
    1976:	99 1f       	adc	r25, r25
    1978:	f1 cf       	rjmp	.-30     	; 0x195c <__fp_splitA+0xc>
    197a:	86 95       	lsr	r24
    197c:	71 05       	cpc	r23, r1
    197e:	61 05       	cpc	r22, r1
    1980:	08 94       	sec
    1982:	08 95       	ret

00001984 <__fp_zero>:
    1984:	e8 94       	clt

00001986 <__fp_szero>:
    1986:	bb 27       	eor	r27, r27
    1988:	66 27       	eor	r22, r22
    198a:	77 27       	eor	r23, r23
    198c:	cb 01       	movw	r24, r22
    198e:	97 f9       	bld	r25, 7
    1990:	08 95       	ret

00001992 <__mulsf3>:
    1992:	0b d0       	rcall	.+22     	; 0x19aa <__mulsf3x>
    1994:	78 c0       	rjmp	.+240    	; 0x1a86 <__fp_round>
    1996:	69 d0       	rcall	.+210    	; 0x1a6a <__fp_pscA>
    1998:	28 f0       	brcs	.+10     	; 0x19a4 <__mulsf3+0x12>
    199a:	6e d0       	rcall	.+220    	; 0x1a78 <__fp_pscB>
    199c:	18 f0       	brcs	.+6      	; 0x19a4 <__mulsf3+0x12>
    199e:	95 23       	and	r25, r21
    19a0:	09 f0       	breq	.+2      	; 0x19a4 <__mulsf3+0x12>
    19a2:	5a c0       	rjmp	.+180    	; 0x1a58 <__fp_inf>
    19a4:	5f c0       	rjmp	.+190    	; 0x1a64 <__fp_nan>
    19a6:	11 24       	eor	r1, r1
    19a8:	ee cf       	rjmp	.-36     	; 0x1986 <__fp_szero>

000019aa <__mulsf3x>:
    19aa:	ca df       	rcall	.-108    	; 0x1940 <__fp_split3>
    19ac:	a0 f3       	brcs	.-24     	; 0x1996 <__mulsf3+0x4>

000019ae <__mulsf3_pse>:
    19ae:	95 9f       	mul	r25, r21
    19b0:	d1 f3       	breq	.-12     	; 0x19a6 <__mulsf3+0x14>
    19b2:	95 0f       	add	r25, r21
    19b4:	50 e0       	ldi	r21, 0x00	; 0
    19b6:	55 1f       	adc	r21, r21
    19b8:	62 9f       	mul	r22, r18
    19ba:	f0 01       	movw	r30, r0
    19bc:	72 9f       	mul	r23, r18
    19be:	bb 27       	eor	r27, r27
    19c0:	f0 0d       	add	r31, r0
    19c2:	b1 1d       	adc	r27, r1
    19c4:	63 9f       	mul	r22, r19
    19c6:	aa 27       	eor	r26, r26
    19c8:	f0 0d       	add	r31, r0
    19ca:	b1 1d       	adc	r27, r1
    19cc:	aa 1f       	adc	r26, r26
    19ce:	64 9f       	mul	r22, r20
    19d0:	66 27       	eor	r22, r22
    19d2:	b0 0d       	add	r27, r0
    19d4:	a1 1d       	adc	r26, r1
    19d6:	66 1f       	adc	r22, r22
    19d8:	82 9f       	mul	r24, r18
    19da:	22 27       	eor	r18, r18
    19dc:	b0 0d       	add	r27, r0
    19de:	a1 1d       	adc	r26, r1
    19e0:	62 1f       	adc	r22, r18
    19e2:	73 9f       	mul	r23, r19
    19e4:	b0 0d       	add	r27, r0
    19e6:	a1 1d       	adc	r26, r1
    19e8:	62 1f       	adc	r22, r18
    19ea:	83 9f       	mul	r24, r19
    19ec:	a0 0d       	add	r26, r0
    19ee:	61 1d       	adc	r22, r1
    19f0:	22 1f       	adc	r18, r18
    19f2:	74 9f       	mul	r23, r20
    19f4:	33 27       	eor	r19, r19
    19f6:	a0 0d       	add	r26, r0
    19f8:	61 1d       	adc	r22, r1
    19fa:	23 1f       	adc	r18, r19
    19fc:	84 9f       	mul	r24, r20
    19fe:	60 0d       	add	r22, r0
    1a00:	21 1d       	adc	r18, r1
    1a02:	82 2f       	mov	r24, r18
    1a04:	76 2f       	mov	r23, r22
    1a06:	6a 2f       	mov	r22, r26
    1a08:	11 24       	eor	r1, r1
    1a0a:	9f 57       	subi	r25, 0x7F	; 127
    1a0c:	50 40       	sbci	r21, 0x00	; 0
    1a0e:	8a f0       	brmi	.+34     	; 0x1a32 <__mulsf3_pse+0x84>
    1a10:	e1 f0       	breq	.+56     	; 0x1a4a <__mulsf3_pse+0x9c>
    1a12:	88 23       	and	r24, r24
    1a14:	4a f0       	brmi	.+18     	; 0x1a28 <__mulsf3_pse+0x7a>
    1a16:	ee 0f       	add	r30, r30
    1a18:	ff 1f       	adc	r31, r31
    1a1a:	bb 1f       	adc	r27, r27
    1a1c:	66 1f       	adc	r22, r22
    1a1e:	77 1f       	adc	r23, r23
    1a20:	88 1f       	adc	r24, r24
    1a22:	91 50       	subi	r25, 0x01	; 1
    1a24:	50 40       	sbci	r21, 0x00	; 0
    1a26:	a9 f7       	brne	.-22     	; 0x1a12 <__mulsf3_pse+0x64>
    1a28:	9e 3f       	cpi	r25, 0xFE	; 254
    1a2a:	51 05       	cpc	r21, r1
    1a2c:	70 f0       	brcs	.+28     	; 0x1a4a <__mulsf3_pse+0x9c>
    1a2e:	14 c0       	rjmp	.+40     	; 0x1a58 <__fp_inf>
    1a30:	aa cf       	rjmp	.-172    	; 0x1986 <__fp_szero>
    1a32:	5f 3f       	cpi	r21, 0xFF	; 255
    1a34:	ec f3       	brlt	.-6      	; 0x1a30 <__mulsf3_pse+0x82>
    1a36:	98 3e       	cpi	r25, 0xE8	; 232
    1a38:	dc f3       	brlt	.-10     	; 0x1a30 <__mulsf3_pse+0x82>
    1a3a:	86 95       	lsr	r24
    1a3c:	77 95       	ror	r23
    1a3e:	67 95       	ror	r22
    1a40:	b7 95       	ror	r27
    1a42:	f7 95       	ror	r31
    1a44:	e7 95       	ror	r30
    1a46:	9f 5f       	subi	r25, 0xFF	; 255
    1a48:	c1 f7       	brne	.-16     	; 0x1a3a <__mulsf3_pse+0x8c>
    1a4a:	fe 2b       	or	r31, r30
    1a4c:	88 0f       	add	r24, r24
    1a4e:	91 1d       	adc	r25, r1
    1a50:	96 95       	lsr	r25
    1a52:	87 95       	ror	r24
    1a54:	97 f9       	bld	r25, 7
    1a56:	08 95       	ret

00001a58 <__fp_inf>:
    1a58:	97 f9       	bld	r25, 7
    1a5a:	9f 67       	ori	r25, 0x7F	; 127
    1a5c:	80 e8       	ldi	r24, 0x80	; 128
    1a5e:	70 e0       	ldi	r23, 0x00	; 0
    1a60:	60 e0       	ldi	r22, 0x00	; 0
    1a62:	08 95       	ret

00001a64 <__fp_nan>:
    1a64:	9f ef       	ldi	r25, 0xFF	; 255
    1a66:	80 ec       	ldi	r24, 0xC0	; 192
    1a68:	08 95       	ret

00001a6a <__fp_pscA>:
    1a6a:	00 24       	eor	r0, r0
    1a6c:	0a 94       	dec	r0
    1a6e:	16 16       	cp	r1, r22
    1a70:	17 06       	cpc	r1, r23
    1a72:	18 06       	cpc	r1, r24
    1a74:	09 06       	cpc	r0, r25
    1a76:	08 95       	ret

00001a78 <__fp_pscB>:
    1a78:	00 24       	eor	r0, r0
    1a7a:	0a 94       	dec	r0
    1a7c:	12 16       	cp	r1, r18
    1a7e:	13 06       	cpc	r1, r19
    1a80:	14 06       	cpc	r1, r20
    1a82:	05 06       	cpc	r0, r21
    1a84:	08 95       	ret

00001a86 <__fp_round>:
    1a86:	09 2e       	mov	r0, r25
    1a88:	03 94       	inc	r0
    1a8a:	00 0c       	add	r0, r0
    1a8c:	11 f4       	brne	.+4      	; 0x1a92 <__fp_round+0xc>
    1a8e:	88 23       	and	r24, r24
    1a90:	52 f0       	brmi	.+20     	; 0x1aa6 <__fp_round+0x20>
    1a92:	bb 0f       	add	r27, r27
    1a94:	40 f4       	brcc	.+16     	; 0x1aa6 <__fp_round+0x20>
    1a96:	bf 2b       	or	r27, r31
    1a98:	11 f4       	brne	.+4      	; 0x1a9e <__fp_round+0x18>
    1a9a:	60 ff       	sbrs	r22, 0
    1a9c:	04 c0       	rjmp	.+8      	; 0x1aa6 <__fp_round+0x20>
    1a9e:	6f 5f       	subi	r22, 0xFF	; 255
    1aa0:	7f 4f       	sbci	r23, 0xFF	; 255
    1aa2:	8f 4f       	sbci	r24, 0xFF	; 255
    1aa4:	9f 4f       	sbci	r25, 0xFF	; 255
    1aa6:	08 95       	ret

00001aa8 <__divmodhi4>:
    1aa8:	97 fb       	bst	r25, 7
    1aaa:	07 2e       	mov	r0, r23
    1aac:	16 f4       	brtc	.+4      	; 0x1ab2 <__divmodhi4+0xa>
    1aae:	00 94       	com	r0
    1ab0:	06 d0       	rcall	.+12     	; 0x1abe <__divmodhi4_neg1>
    1ab2:	77 fd       	sbrc	r23, 7
    1ab4:	08 d0       	rcall	.+16     	; 0x1ac6 <__divmodhi4_neg2>
    1ab6:	0b d0       	rcall	.+22     	; 0x1ace <__udivmodhi4>
    1ab8:	07 fc       	sbrc	r0, 7
    1aba:	05 d0       	rcall	.+10     	; 0x1ac6 <__divmodhi4_neg2>
    1abc:	3e f4       	brtc	.+14     	; 0x1acc <__divmodhi4_exit>

00001abe <__divmodhi4_neg1>:
    1abe:	90 95       	com	r25
    1ac0:	81 95       	neg	r24
    1ac2:	9f 4f       	sbci	r25, 0xFF	; 255
    1ac4:	08 95       	ret

00001ac6 <__divmodhi4_neg2>:
    1ac6:	70 95       	com	r23
    1ac8:	61 95       	neg	r22
    1aca:	7f 4f       	sbci	r23, 0xFF	; 255

00001acc <__divmodhi4_exit>:
    1acc:	08 95       	ret

00001ace <__udivmodhi4>:
    1ace:	aa 1b       	sub	r26, r26
    1ad0:	bb 1b       	sub	r27, r27
    1ad2:	51 e1       	ldi	r21, 0x11	; 17
    1ad4:	07 c0       	rjmp	.+14     	; 0x1ae4 <__udivmodhi4_ep>

00001ad6 <__udivmodhi4_loop>:
    1ad6:	aa 1f       	adc	r26, r26
    1ad8:	bb 1f       	adc	r27, r27
    1ada:	a6 17       	cp	r26, r22
    1adc:	b7 07       	cpc	r27, r23
    1ade:	10 f0       	brcs	.+4      	; 0x1ae4 <__udivmodhi4_ep>
    1ae0:	a6 1b       	sub	r26, r22
    1ae2:	b7 0b       	sbc	r27, r23

00001ae4 <__udivmodhi4_ep>:
    1ae4:	88 1f       	adc	r24, r24
    1ae6:	99 1f       	adc	r25, r25
    1ae8:	5a 95       	dec	r21
    1aea:	a9 f7       	brne	.-22     	; 0x1ad6 <__udivmodhi4_loop>
    1aec:	80 95       	com	r24
    1aee:	90 95       	com	r25
    1af0:	bc 01       	movw	r22, r24
    1af2:	cd 01       	movw	r24, r26
    1af4:	08 95       	ret

00001af6 <sprintf>:
    1af6:	0f 93       	push	r16
    1af8:	1f 93       	push	r17
    1afa:	cf 93       	push	r28
    1afc:	df 93       	push	r29
    1afe:	cd b7       	in	r28, 0x3d	; 61
    1b00:	de b7       	in	r29, 0x3e	; 62
    1b02:	2e 97       	sbiw	r28, 0x0e	; 14
    1b04:	0f b6       	in	r0, 0x3f	; 63
    1b06:	f8 94       	cli
    1b08:	de bf       	out	0x3e, r29	; 62
    1b0a:	0f be       	out	0x3f, r0	; 63
    1b0c:	cd bf       	out	0x3d, r28	; 61
    1b0e:	0d 89       	ldd	r16, Y+21	; 0x15
    1b10:	1e 89       	ldd	r17, Y+22	; 0x16
    1b12:	86 e0       	ldi	r24, 0x06	; 6
    1b14:	8c 83       	std	Y+4, r24	; 0x04
    1b16:	1a 83       	std	Y+2, r17	; 0x02
    1b18:	09 83       	std	Y+1, r16	; 0x01
    1b1a:	8f ef       	ldi	r24, 0xFF	; 255
    1b1c:	9f e7       	ldi	r25, 0x7F	; 127
    1b1e:	9e 83       	std	Y+6, r25	; 0x06
    1b20:	8d 83       	std	Y+5, r24	; 0x05
    1b22:	ae 01       	movw	r20, r28
    1b24:	47 5e       	subi	r20, 0xE7	; 231
    1b26:	5f 4f       	sbci	r21, 0xFF	; 255
    1b28:	6f 89       	ldd	r22, Y+23	; 0x17
    1b2a:	78 8d       	ldd	r23, Y+24	; 0x18
    1b2c:	ce 01       	movw	r24, r28
    1b2e:	01 96       	adiw	r24, 0x01	; 1
    1b30:	10 d0       	rcall	.+32     	; 0x1b52 <vfprintf>
    1b32:	ef 81       	ldd	r30, Y+7	; 0x07
    1b34:	f8 85       	ldd	r31, Y+8	; 0x08
    1b36:	e0 0f       	add	r30, r16
    1b38:	f1 1f       	adc	r31, r17
    1b3a:	10 82       	st	Z, r1
    1b3c:	2e 96       	adiw	r28, 0x0e	; 14
    1b3e:	0f b6       	in	r0, 0x3f	; 63
    1b40:	f8 94       	cli
    1b42:	de bf       	out	0x3e, r29	; 62
    1b44:	0f be       	out	0x3f, r0	; 63
    1b46:	cd bf       	out	0x3d, r28	; 61
    1b48:	df 91       	pop	r29
    1b4a:	cf 91       	pop	r28
    1b4c:	1f 91       	pop	r17
    1b4e:	0f 91       	pop	r16
    1b50:	08 95       	ret

00001b52 <vfprintf>:
    1b52:	2f 92       	push	r2
    1b54:	3f 92       	push	r3
    1b56:	4f 92       	push	r4
    1b58:	5f 92       	push	r5
    1b5a:	6f 92       	push	r6
    1b5c:	7f 92       	push	r7
    1b5e:	8f 92       	push	r8
    1b60:	9f 92       	push	r9
    1b62:	af 92       	push	r10
    1b64:	bf 92       	push	r11
    1b66:	cf 92       	push	r12
    1b68:	df 92       	push	r13
    1b6a:	ef 92       	push	r14
    1b6c:	ff 92       	push	r15
    1b6e:	0f 93       	push	r16
    1b70:	1f 93       	push	r17
    1b72:	cf 93       	push	r28
    1b74:	df 93       	push	r29
    1b76:	cd b7       	in	r28, 0x3d	; 61
    1b78:	de b7       	in	r29, 0x3e	; 62
    1b7a:	2b 97       	sbiw	r28, 0x0b	; 11
    1b7c:	0f b6       	in	r0, 0x3f	; 63
    1b7e:	f8 94       	cli
    1b80:	de bf       	out	0x3e, r29	; 62
    1b82:	0f be       	out	0x3f, r0	; 63
    1b84:	cd bf       	out	0x3d, r28	; 61
    1b86:	6c 01       	movw	r12, r24
    1b88:	7b 01       	movw	r14, r22
    1b8a:	8a 01       	movw	r16, r20
    1b8c:	fc 01       	movw	r30, r24
    1b8e:	17 82       	std	Z+7, r1	; 0x07
    1b90:	16 82       	std	Z+6, r1	; 0x06
    1b92:	83 81       	ldd	r24, Z+3	; 0x03
    1b94:	81 ff       	sbrs	r24, 1
    1b96:	bf c1       	rjmp	.+894    	; 0x1f16 <vfprintf+0x3c4>
    1b98:	ce 01       	movw	r24, r28
    1b9a:	01 96       	adiw	r24, 0x01	; 1
    1b9c:	3c 01       	movw	r6, r24
    1b9e:	f6 01       	movw	r30, r12
    1ba0:	93 81       	ldd	r25, Z+3	; 0x03
    1ba2:	f7 01       	movw	r30, r14
    1ba4:	93 fd       	sbrc	r25, 3
    1ba6:	85 91       	lpm	r24, Z+
    1ba8:	93 ff       	sbrs	r25, 3
    1baa:	81 91       	ld	r24, Z+
    1bac:	7f 01       	movw	r14, r30
    1bae:	88 23       	and	r24, r24
    1bb0:	09 f4       	brne	.+2      	; 0x1bb4 <vfprintf+0x62>
    1bb2:	ad c1       	rjmp	.+858    	; 0x1f0e <vfprintf+0x3bc>
    1bb4:	85 32       	cpi	r24, 0x25	; 37
    1bb6:	39 f4       	brne	.+14     	; 0x1bc6 <vfprintf+0x74>
    1bb8:	93 fd       	sbrc	r25, 3
    1bba:	85 91       	lpm	r24, Z+
    1bbc:	93 ff       	sbrs	r25, 3
    1bbe:	81 91       	ld	r24, Z+
    1bc0:	7f 01       	movw	r14, r30
    1bc2:	85 32       	cpi	r24, 0x25	; 37
    1bc4:	21 f4       	brne	.+8      	; 0x1bce <vfprintf+0x7c>
    1bc6:	b6 01       	movw	r22, r12
    1bc8:	90 e0       	ldi	r25, 0x00	; 0
    1bca:	d6 d1       	rcall	.+940    	; 0x1f78 <fputc>
    1bcc:	e8 cf       	rjmp	.-48     	; 0x1b9e <vfprintf+0x4c>
    1bce:	91 2c       	mov	r9, r1
    1bd0:	21 2c       	mov	r2, r1
    1bd2:	31 2c       	mov	r3, r1
    1bd4:	ff e1       	ldi	r31, 0x1F	; 31
    1bd6:	f3 15       	cp	r31, r3
    1bd8:	d8 f0       	brcs	.+54     	; 0x1c10 <vfprintf+0xbe>
    1bda:	8b 32       	cpi	r24, 0x2B	; 43
    1bdc:	79 f0       	breq	.+30     	; 0x1bfc <vfprintf+0xaa>
    1bde:	38 f4       	brcc	.+14     	; 0x1bee <vfprintf+0x9c>
    1be0:	80 32       	cpi	r24, 0x20	; 32
    1be2:	79 f0       	breq	.+30     	; 0x1c02 <vfprintf+0xb0>
    1be4:	83 32       	cpi	r24, 0x23	; 35
    1be6:	a1 f4       	brne	.+40     	; 0x1c10 <vfprintf+0xbe>
    1be8:	23 2d       	mov	r18, r3
    1bea:	20 61       	ori	r18, 0x10	; 16
    1bec:	1d c0       	rjmp	.+58     	; 0x1c28 <vfprintf+0xd6>
    1bee:	8d 32       	cpi	r24, 0x2D	; 45
    1bf0:	61 f0       	breq	.+24     	; 0x1c0a <vfprintf+0xb8>
    1bf2:	80 33       	cpi	r24, 0x30	; 48
    1bf4:	69 f4       	brne	.+26     	; 0x1c10 <vfprintf+0xbe>
    1bf6:	23 2d       	mov	r18, r3
    1bf8:	21 60       	ori	r18, 0x01	; 1
    1bfa:	16 c0       	rjmp	.+44     	; 0x1c28 <vfprintf+0xd6>
    1bfc:	83 2d       	mov	r24, r3
    1bfe:	82 60       	ori	r24, 0x02	; 2
    1c00:	38 2e       	mov	r3, r24
    1c02:	e3 2d       	mov	r30, r3
    1c04:	e4 60       	ori	r30, 0x04	; 4
    1c06:	3e 2e       	mov	r3, r30
    1c08:	2a c0       	rjmp	.+84     	; 0x1c5e <vfprintf+0x10c>
    1c0a:	f3 2d       	mov	r31, r3
    1c0c:	f8 60       	ori	r31, 0x08	; 8
    1c0e:	1d c0       	rjmp	.+58     	; 0x1c4a <vfprintf+0xf8>
    1c10:	37 fc       	sbrc	r3, 7
    1c12:	2d c0       	rjmp	.+90     	; 0x1c6e <vfprintf+0x11c>
    1c14:	20 ed       	ldi	r18, 0xD0	; 208
    1c16:	28 0f       	add	r18, r24
    1c18:	2a 30       	cpi	r18, 0x0A	; 10
    1c1a:	40 f0       	brcs	.+16     	; 0x1c2c <vfprintf+0xda>
    1c1c:	8e 32       	cpi	r24, 0x2E	; 46
    1c1e:	b9 f4       	brne	.+46     	; 0x1c4e <vfprintf+0xfc>
    1c20:	36 fc       	sbrc	r3, 6
    1c22:	75 c1       	rjmp	.+746    	; 0x1f0e <vfprintf+0x3bc>
    1c24:	23 2d       	mov	r18, r3
    1c26:	20 64       	ori	r18, 0x40	; 64
    1c28:	32 2e       	mov	r3, r18
    1c2a:	19 c0       	rjmp	.+50     	; 0x1c5e <vfprintf+0x10c>
    1c2c:	36 fe       	sbrs	r3, 6
    1c2e:	06 c0       	rjmp	.+12     	; 0x1c3c <vfprintf+0xea>
    1c30:	8a e0       	ldi	r24, 0x0A	; 10
    1c32:	98 9e       	mul	r9, r24
    1c34:	20 0d       	add	r18, r0
    1c36:	11 24       	eor	r1, r1
    1c38:	92 2e       	mov	r9, r18
    1c3a:	11 c0       	rjmp	.+34     	; 0x1c5e <vfprintf+0x10c>
    1c3c:	ea e0       	ldi	r30, 0x0A	; 10
    1c3e:	2e 9e       	mul	r2, r30
    1c40:	20 0d       	add	r18, r0
    1c42:	11 24       	eor	r1, r1
    1c44:	22 2e       	mov	r2, r18
    1c46:	f3 2d       	mov	r31, r3
    1c48:	f0 62       	ori	r31, 0x20	; 32
    1c4a:	3f 2e       	mov	r3, r31
    1c4c:	08 c0       	rjmp	.+16     	; 0x1c5e <vfprintf+0x10c>
    1c4e:	8c 36       	cpi	r24, 0x6C	; 108
    1c50:	21 f4       	brne	.+8      	; 0x1c5a <vfprintf+0x108>
    1c52:	83 2d       	mov	r24, r3
    1c54:	80 68       	ori	r24, 0x80	; 128
    1c56:	38 2e       	mov	r3, r24
    1c58:	02 c0       	rjmp	.+4      	; 0x1c5e <vfprintf+0x10c>
    1c5a:	88 36       	cpi	r24, 0x68	; 104
    1c5c:	41 f4       	brne	.+16     	; 0x1c6e <vfprintf+0x11c>
    1c5e:	f7 01       	movw	r30, r14
    1c60:	93 fd       	sbrc	r25, 3
    1c62:	85 91       	lpm	r24, Z+
    1c64:	93 ff       	sbrs	r25, 3
    1c66:	81 91       	ld	r24, Z+
    1c68:	7f 01       	movw	r14, r30
    1c6a:	81 11       	cpse	r24, r1
    1c6c:	b3 cf       	rjmp	.-154    	; 0x1bd4 <vfprintf+0x82>
    1c6e:	98 2f       	mov	r25, r24
    1c70:	9f 7d       	andi	r25, 0xDF	; 223
    1c72:	95 54       	subi	r25, 0x45	; 69
    1c74:	93 30       	cpi	r25, 0x03	; 3
    1c76:	28 f4       	brcc	.+10     	; 0x1c82 <vfprintf+0x130>
    1c78:	0c 5f       	subi	r16, 0xFC	; 252
    1c7a:	1f 4f       	sbci	r17, 0xFF	; 255
    1c7c:	9f e3       	ldi	r25, 0x3F	; 63
    1c7e:	99 83       	std	Y+1, r25	; 0x01
    1c80:	0d c0       	rjmp	.+26     	; 0x1c9c <vfprintf+0x14a>
    1c82:	83 36       	cpi	r24, 0x63	; 99
    1c84:	31 f0       	breq	.+12     	; 0x1c92 <vfprintf+0x140>
    1c86:	83 37       	cpi	r24, 0x73	; 115
    1c88:	71 f0       	breq	.+28     	; 0x1ca6 <vfprintf+0x154>
    1c8a:	83 35       	cpi	r24, 0x53	; 83
    1c8c:	09 f0       	breq	.+2      	; 0x1c90 <vfprintf+0x13e>
    1c8e:	55 c0       	rjmp	.+170    	; 0x1d3a <vfprintf+0x1e8>
    1c90:	20 c0       	rjmp	.+64     	; 0x1cd2 <vfprintf+0x180>
    1c92:	f8 01       	movw	r30, r16
    1c94:	80 81       	ld	r24, Z
    1c96:	89 83       	std	Y+1, r24	; 0x01
    1c98:	0e 5f       	subi	r16, 0xFE	; 254
    1c9a:	1f 4f       	sbci	r17, 0xFF	; 255
    1c9c:	88 24       	eor	r8, r8
    1c9e:	83 94       	inc	r8
    1ca0:	91 2c       	mov	r9, r1
    1ca2:	53 01       	movw	r10, r6
    1ca4:	12 c0       	rjmp	.+36     	; 0x1cca <vfprintf+0x178>
    1ca6:	28 01       	movw	r4, r16
    1ca8:	f2 e0       	ldi	r31, 0x02	; 2
    1caa:	4f 0e       	add	r4, r31
    1cac:	51 1c       	adc	r5, r1
    1cae:	f8 01       	movw	r30, r16
    1cb0:	a0 80       	ld	r10, Z
    1cb2:	b1 80       	ldd	r11, Z+1	; 0x01
    1cb4:	36 fe       	sbrs	r3, 6
    1cb6:	03 c0       	rjmp	.+6      	; 0x1cbe <vfprintf+0x16c>
    1cb8:	69 2d       	mov	r22, r9
    1cba:	70 e0       	ldi	r23, 0x00	; 0
    1cbc:	02 c0       	rjmp	.+4      	; 0x1cc2 <vfprintf+0x170>
    1cbe:	6f ef       	ldi	r22, 0xFF	; 255
    1cc0:	7f ef       	ldi	r23, 0xFF	; 255
    1cc2:	c5 01       	movw	r24, r10
    1cc4:	4e d1       	rcall	.+668    	; 0x1f62 <strnlen>
    1cc6:	4c 01       	movw	r8, r24
    1cc8:	82 01       	movw	r16, r4
    1cca:	f3 2d       	mov	r31, r3
    1ccc:	ff 77       	andi	r31, 0x7F	; 127
    1cce:	3f 2e       	mov	r3, r31
    1cd0:	15 c0       	rjmp	.+42     	; 0x1cfc <vfprintf+0x1aa>
    1cd2:	28 01       	movw	r4, r16
    1cd4:	22 e0       	ldi	r18, 0x02	; 2
    1cd6:	42 0e       	add	r4, r18
    1cd8:	51 1c       	adc	r5, r1
    1cda:	f8 01       	movw	r30, r16
    1cdc:	a0 80       	ld	r10, Z
    1cde:	b1 80       	ldd	r11, Z+1	; 0x01
    1ce0:	36 fe       	sbrs	r3, 6
    1ce2:	03 c0       	rjmp	.+6      	; 0x1cea <vfprintf+0x198>
    1ce4:	69 2d       	mov	r22, r9
    1ce6:	70 e0       	ldi	r23, 0x00	; 0
    1ce8:	02 c0       	rjmp	.+4      	; 0x1cee <vfprintf+0x19c>
    1cea:	6f ef       	ldi	r22, 0xFF	; 255
    1cec:	7f ef       	ldi	r23, 0xFF	; 255
    1cee:	c5 01       	movw	r24, r10
    1cf0:	2d d1       	rcall	.+602    	; 0x1f4c <strnlen_P>
    1cf2:	4c 01       	movw	r8, r24
    1cf4:	f3 2d       	mov	r31, r3
    1cf6:	f0 68       	ori	r31, 0x80	; 128
    1cf8:	3f 2e       	mov	r3, r31
    1cfa:	82 01       	movw	r16, r4
    1cfc:	33 fc       	sbrc	r3, 3
    1cfe:	19 c0       	rjmp	.+50     	; 0x1d32 <vfprintf+0x1e0>
    1d00:	82 2d       	mov	r24, r2
    1d02:	90 e0       	ldi	r25, 0x00	; 0
    1d04:	88 16       	cp	r8, r24
    1d06:	99 06       	cpc	r9, r25
    1d08:	a0 f4       	brcc	.+40     	; 0x1d32 <vfprintf+0x1e0>
    1d0a:	b6 01       	movw	r22, r12
    1d0c:	80 e2       	ldi	r24, 0x20	; 32
    1d0e:	90 e0       	ldi	r25, 0x00	; 0
    1d10:	33 d1       	rcall	.+614    	; 0x1f78 <fputc>
    1d12:	2a 94       	dec	r2
    1d14:	f5 cf       	rjmp	.-22     	; 0x1d00 <vfprintf+0x1ae>
    1d16:	f5 01       	movw	r30, r10
    1d18:	37 fc       	sbrc	r3, 7
    1d1a:	85 91       	lpm	r24, Z+
    1d1c:	37 fe       	sbrs	r3, 7
    1d1e:	81 91       	ld	r24, Z+
    1d20:	5f 01       	movw	r10, r30
    1d22:	b6 01       	movw	r22, r12
    1d24:	90 e0       	ldi	r25, 0x00	; 0
    1d26:	28 d1       	rcall	.+592    	; 0x1f78 <fputc>
    1d28:	21 10       	cpse	r2, r1
    1d2a:	2a 94       	dec	r2
    1d2c:	21 e0       	ldi	r18, 0x01	; 1
    1d2e:	82 1a       	sub	r8, r18
    1d30:	91 08       	sbc	r9, r1
    1d32:	81 14       	cp	r8, r1
    1d34:	91 04       	cpc	r9, r1
    1d36:	79 f7       	brne	.-34     	; 0x1d16 <vfprintf+0x1c4>
    1d38:	e1 c0       	rjmp	.+450    	; 0x1efc <vfprintf+0x3aa>
    1d3a:	84 36       	cpi	r24, 0x64	; 100
    1d3c:	11 f0       	breq	.+4      	; 0x1d42 <vfprintf+0x1f0>
    1d3e:	89 36       	cpi	r24, 0x69	; 105
    1d40:	39 f5       	brne	.+78     	; 0x1d90 <vfprintf+0x23e>
    1d42:	f8 01       	movw	r30, r16
    1d44:	37 fe       	sbrs	r3, 7
    1d46:	07 c0       	rjmp	.+14     	; 0x1d56 <vfprintf+0x204>
    1d48:	60 81       	ld	r22, Z
    1d4a:	71 81       	ldd	r23, Z+1	; 0x01
    1d4c:	82 81       	ldd	r24, Z+2	; 0x02
    1d4e:	93 81       	ldd	r25, Z+3	; 0x03
    1d50:	0c 5f       	subi	r16, 0xFC	; 252
    1d52:	1f 4f       	sbci	r17, 0xFF	; 255
    1d54:	08 c0       	rjmp	.+16     	; 0x1d66 <vfprintf+0x214>
    1d56:	60 81       	ld	r22, Z
    1d58:	71 81       	ldd	r23, Z+1	; 0x01
    1d5a:	07 2e       	mov	r0, r23
    1d5c:	00 0c       	add	r0, r0
    1d5e:	88 0b       	sbc	r24, r24
    1d60:	99 0b       	sbc	r25, r25
    1d62:	0e 5f       	subi	r16, 0xFE	; 254
    1d64:	1f 4f       	sbci	r17, 0xFF	; 255
    1d66:	f3 2d       	mov	r31, r3
    1d68:	ff 76       	andi	r31, 0x6F	; 111
    1d6a:	3f 2e       	mov	r3, r31
    1d6c:	97 ff       	sbrs	r25, 7
    1d6e:	09 c0       	rjmp	.+18     	; 0x1d82 <vfprintf+0x230>
    1d70:	90 95       	com	r25
    1d72:	80 95       	com	r24
    1d74:	70 95       	com	r23
    1d76:	61 95       	neg	r22
    1d78:	7f 4f       	sbci	r23, 0xFF	; 255
    1d7a:	8f 4f       	sbci	r24, 0xFF	; 255
    1d7c:	9f 4f       	sbci	r25, 0xFF	; 255
    1d7e:	f0 68       	ori	r31, 0x80	; 128
    1d80:	3f 2e       	mov	r3, r31
    1d82:	2a e0       	ldi	r18, 0x0A	; 10
    1d84:	30 e0       	ldi	r19, 0x00	; 0
    1d86:	a3 01       	movw	r20, r6
    1d88:	33 d1       	rcall	.+614    	; 0x1ff0 <__ultoa_invert>
    1d8a:	88 2e       	mov	r8, r24
    1d8c:	86 18       	sub	r8, r6
    1d8e:	44 c0       	rjmp	.+136    	; 0x1e18 <vfprintf+0x2c6>
    1d90:	85 37       	cpi	r24, 0x75	; 117
    1d92:	31 f4       	brne	.+12     	; 0x1da0 <vfprintf+0x24e>
    1d94:	23 2d       	mov	r18, r3
    1d96:	2f 7e       	andi	r18, 0xEF	; 239
    1d98:	b2 2e       	mov	r11, r18
    1d9a:	2a e0       	ldi	r18, 0x0A	; 10
    1d9c:	30 e0       	ldi	r19, 0x00	; 0
    1d9e:	25 c0       	rjmp	.+74     	; 0x1dea <vfprintf+0x298>
    1da0:	93 2d       	mov	r25, r3
    1da2:	99 7f       	andi	r25, 0xF9	; 249
    1da4:	b9 2e       	mov	r11, r25
    1da6:	8f 36       	cpi	r24, 0x6F	; 111
    1da8:	c1 f0       	breq	.+48     	; 0x1dda <vfprintf+0x288>
    1daa:	18 f4       	brcc	.+6      	; 0x1db2 <vfprintf+0x260>
    1dac:	88 35       	cpi	r24, 0x58	; 88
    1dae:	79 f0       	breq	.+30     	; 0x1dce <vfprintf+0x27c>
    1db0:	ae c0       	rjmp	.+348    	; 0x1f0e <vfprintf+0x3bc>
    1db2:	80 37       	cpi	r24, 0x70	; 112
    1db4:	19 f0       	breq	.+6      	; 0x1dbc <vfprintf+0x26a>
    1db6:	88 37       	cpi	r24, 0x78	; 120
    1db8:	21 f0       	breq	.+8      	; 0x1dc2 <vfprintf+0x270>
    1dba:	a9 c0       	rjmp	.+338    	; 0x1f0e <vfprintf+0x3bc>
    1dbc:	e9 2f       	mov	r30, r25
    1dbe:	e0 61       	ori	r30, 0x10	; 16
    1dc0:	be 2e       	mov	r11, r30
    1dc2:	b4 fe       	sbrs	r11, 4
    1dc4:	0d c0       	rjmp	.+26     	; 0x1de0 <vfprintf+0x28e>
    1dc6:	fb 2d       	mov	r31, r11
    1dc8:	f4 60       	ori	r31, 0x04	; 4
    1dca:	bf 2e       	mov	r11, r31
    1dcc:	09 c0       	rjmp	.+18     	; 0x1de0 <vfprintf+0x28e>
    1dce:	34 fe       	sbrs	r3, 4
    1dd0:	0a c0       	rjmp	.+20     	; 0x1de6 <vfprintf+0x294>
    1dd2:	29 2f       	mov	r18, r25
    1dd4:	26 60       	ori	r18, 0x06	; 6
    1dd6:	b2 2e       	mov	r11, r18
    1dd8:	06 c0       	rjmp	.+12     	; 0x1de6 <vfprintf+0x294>
    1dda:	28 e0       	ldi	r18, 0x08	; 8
    1ddc:	30 e0       	ldi	r19, 0x00	; 0
    1dde:	05 c0       	rjmp	.+10     	; 0x1dea <vfprintf+0x298>
    1de0:	20 e1       	ldi	r18, 0x10	; 16
    1de2:	30 e0       	ldi	r19, 0x00	; 0
    1de4:	02 c0       	rjmp	.+4      	; 0x1dea <vfprintf+0x298>
    1de6:	20 e1       	ldi	r18, 0x10	; 16
    1de8:	32 e0       	ldi	r19, 0x02	; 2
    1dea:	f8 01       	movw	r30, r16
    1dec:	b7 fe       	sbrs	r11, 7
    1dee:	07 c0       	rjmp	.+14     	; 0x1dfe <vfprintf+0x2ac>
    1df0:	60 81       	ld	r22, Z
    1df2:	71 81       	ldd	r23, Z+1	; 0x01
    1df4:	82 81       	ldd	r24, Z+2	; 0x02
    1df6:	93 81       	ldd	r25, Z+3	; 0x03
    1df8:	0c 5f       	subi	r16, 0xFC	; 252
    1dfa:	1f 4f       	sbci	r17, 0xFF	; 255
    1dfc:	06 c0       	rjmp	.+12     	; 0x1e0a <vfprintf+0x2b8>
    1dfe:	60 81       	ld	r22, Z
    1e00:	71 81       	ldd	r23, Z+1	; 0x01
    1e02:	80 e0       	ldi	r24, 0x00	; 0
    1e04:	90 e0       	ldi	r25, 0x00	; 0
    1e06:	0e 5f       	subi	r16, 0xFE	; 254
    1e08:	1f 4f       	sbci	r17, 0xFF	; 255
    1e0a:	a3 01       	movw	r20, r6
    1e0c:	f1 d0       	rcall	.+482    	; 0x1ff0 <__ultoa_invert>
    1e0e:	88 2e       	mov	r8, r24
    1e10:	86 18       	sub	r8, r6
    1e12:	fb 2d       	mov	r31, r11
    1e14:	ff 77       	andi	r31, 0x7F	; 127
    1e16:	3f 2e       	mov	r3, r31
    1e18:	36 fe       	sbrs	r3, 6
    1e1a:	0d c0       	rjmp	.+26     	; 0x1e36 <vfprintf+0x2e4>
    1e1c:	23 2d       	mov	r18, r3
    1e1e:	2e 7f       	andi	r18, 0xFE	; 254
    1e20:	a2 2e       	mov	r10, r18
    1e22:	89 14       	cp	r8, r9
    1e24:	58 f4       	brcc	.+22     	; 0x1e3c <vfprintf+0x2ea>
    1e26:	34 fe       	sbrs	r3, 4
    1e28:	0b c0       	rjmp	.+22     	; 0x1e40 <vfprintf+0x2ee>
    1e2a:	32 fc       	sbrc	r3, 2
    1e2c:	09 c0       	rjmp	.+18     	; 0x1e40 <vfprintf+0x2ee>
    1e2e:	83 2d       	mov	r24, r3
    1e30:	8e 7e       	andi	r24, 0xEE	; 238
    1e32:	a8 2e       	mov	r10, r24
    1e34:	05 c0       	rjmp	.+10     	; 0x1e40 <vfprintf+0x2ee>
    1e36:	b8 2c       	mov	r11, r8
    1e38:	a3 2c       	mov	r10, r3
    1e3a:	03 c0       	rjmp	.+6      	; 0x1e42 <vfprintf+0x2f0>
    1e3c:	b8 2c       	mov	r11, r8
    1e3e:	01 c0       	rjmp	.+2      	; 0x1e42 <vfprintf+0x2f0>
    1e40:	b9 2c       	mov	r11, r9
    1e42:	a4 fe       	sbrs	r10, 4
    1e44:	0f c0       	rjmp	.+30     	; 0x1e64 <vfprintf+0x312>
    1e46:	fe 01       	movw	r30, r28
    1e48:	e8 0d       	add	r30, r8
    1e4a:	f1 1d       	adc	r31, r1
    1e4c:	80 81       	ld	r24, Z
    1e4e:	80 33       	cpi	r24, 0x30	; 48
    1e50:	21 f4       	brne	.+8      	; 0x1e5a <vfprintf+0x308>
    1e52:	9a 2d       	mov	r25, r10
    1e54:	99 7e       	andi	r25, 0xE9	; 233
    1e56:	a9 2e       	mov	r10, r25
    1e58:	09 c0       	rjmp	.+18     	; 0x1e6c <vfprintf+0x31a>
    1e5a:	a2 fe       	sbrs	r10, 2
    1e5c:	06 c0       	rjmp	.+12     	; 0x1e6a <vfprintf+0x318>
    1e5e:	b3 94       	inc	r11
    1e60:	b3 94       	inc	r11
    1e62:	04 c0       	rjmp	.+8      	; 0x1e6c <vfprintf+0x31a>
    1e64:	8a 2d       	mov	r24, r10
    1e66:	86 78       	andi	r24, 0x86	; 134
    1e68:	09 f0       	breq	.+2      	; 0x1e6c <vfprintf+0x31a>
    1e6a:	b3 94       	inc	r11
    1e6c:	a3 fc       	sbrc	r10, 3
    1e6e:	10 c0       	rjmp	.+32     	; 0x1e90 <vfprintf+0x33e>
    1e70:	a0 fe       	sbrs	r10, 0
    1e72:	06 c0       	rjmp	.+12     	; 0x1e80 <vfprintf+0x32e>
    1e74:	b2 14       	cp	r11, r2
    1e76:	80 f4       	brcc	.+32     	; 0x1e98 <vfprintf+0x346>
    1e78:	28 0c       	add	r2, r8
    1e7a:	92 2c       	mov	r9, r2
    1e7c:	9b 18       	sub	r9, r11
    1e7e:	0d c0       	rjmp	.+26     	; 0x1e9a <vfprintf+0x348>
    1e80:	b2 14       	cp	r11, r2
    1e82:	58 f4       	brcc	.+22     	; 0x1e9a <vfprintf+0x348>
    1e84:	b6 01       	movw	r22, r12
    1e86:	80 e2       	ldi	r24, 0x20	; 32
    1e88:	90 e0       	ldi	r25, 0x00	; 0
    1e8a:	76 d0       	rcall	.+236    	; 0x1f78 <fputc>
    1e8c:	b3 94       	inc	r11
    1e8e:	f8 cf       	rjmp	.-16     	; 0x1e80 <vfprintf+0x32e>
    1e90:	b2 14       	cp	r11, r2
    1e92:	18 f4       	brcc	.+6      	; 0x1e9a <vfprintf+0x348>
    1e94:	2b 18       	sub	r2, r11
    1e96:	02 c0       	rjmp	.+4      	; 0x1e9c <vfprintf+0x34a>
    1e98:	98 2c       	mov	r9, r8
    1e9a:	21 2c       	mov	r2, r1
    1e9c:	a4 fe       	sbrs	r10, 4
    1e9e:	0f c0       	rjmp	.+30     	; 0x1ebe <vfprintf+0x36c>
    1ea0:	b6 01       	movw	r22, r12
    1ea2:	80 e3       	ldi	r24, 0x30	; 48
    1ea4:	90 e0       	ldi	r25, 0x00	; 0
    1ea6:	68 d0       	rcall	.+208    	; 0x1f78 <fputc>
    1ea8:	a2 fe       	sbrs	r10, 2
    1eaa:	16 c0       	rjmp	.+44     	; 0x1ed8 <vfprintf+0x386>
    1eac:	a1 fc       	sbrc	r10, 1
    1eae:	03 c0       	rjmp	.+6      	; 0x1eb6 <vfprintf+0x364>
    1eb0:	88 e7       	ldi	r24, 0x78	; 120
    1eb2:	90 e0       	ldi	r25, 0x00	; 0
    1eb4:	02 c0       	rjmp	.+4      	; 0x1eba <vfprintf+0x368>
    1eb6:	88 e5       	ldi	r24, 0x58	; 88
    1eb8:	90 e0       	ldi	r25, 0x00	; 0
    1eba:	b6 01       	movw	r22, r12
    1ebc:	0c c0       	rjmp	.+24     	; 0x1ed6 <vfprintf+0x384>
    1ebe:	8a 2d       	mov	r24, r10
    1ec0:	86 78       	andi	r24, 0x86	; 134
    1ec2:	51 f0       	breq	.+20     	; 0x1ed8 <vfprintf+0x386>
    1ec4:	a1 fe       	sbrs	r10, 1
    1ec6:	02 c0       	rjmp	.+4      	; 0x1ecc <vfprintf+0x37a>
    1ec8:	8b e2       	ldi	r24, 0x2B	; 43
    1eca:	01 c0       	rjmp	.+2      	; 0x1ece <vfprintf+0x37c>
    1ecc:	80 e2       	ldi	r24, 0x20	; 32
    1ece:	a7 fc       	sbrc	r10, 7
    1ed0:	8d e2       	ldi	r24, 0x2D	; 45
    1ed2:	b6 01       	movw	r22, r12
    1ed4:	90 e0       	ldi	r25, 0x00	; 0
    1ed6:	50 d0       	rcall	.+160    	; 0x1f78 <fputc>
    1ed8:	89 14       	cp	r8, r9
    1eda:	30 f4       	brcc	.+12     	; 0x1ee8 <vfprintf+0x396>
    1edc:	b6 01       	movw	r22, r12
    1ede:	80 e3       	ldi	r24, 0x30	; 48
    1ee0:	90 e0       	ldi	r25, 0x00	; 0
    1ee2:	4a d0       	rcall	.+148    	; 0x1f78 <fputc>
    1ee4:	9a 94       	dec	r9
    1ee6:	f8 cf       	rjmp	.-16     	; 0x1ed8 <vfprintf+0x386>
    1ee8:	8a 94       	dec	r8
    1eea:	f3 01       	movw	r30, r6
    1eec:	e8 0d       	add	r30, r8
    1eee:	f1 1d       	adc	r31, r1
    1ef0:	80 81       	ld	r24, Z
    1ef2:	b6 01       	movw	r22, r12
    1ef4:	90 e0       	ldi	r25, 0x00	; 0
    1ef6:	40 d0       	rcall	.+128    	; 0x1f78 <fputc>
    1ef8:	81 10       	cpse	r8, r1
    1efa:	f6 cf       	rjmp	.-20     	; 0x1ee8 <vfprintf+0x396>
    1efc:	22 20       	and	r2, r2
    1efe:	09 f4       	brne	.+2      	; 0x1f02 <vfprintf+0x3b0>
    1f00:	4e ce       	rjmp	.-868    	; 0x1b9e <vfprintf+0x4c>
    1f02:	b6 01       	movw	r22, r12
    1f04:	80 e2       	ldi	r24, 0x20	; 32
    1f06:	90 e0       	ldi	r25, 0x00	; 0
    1f08:	37 d0       	rcall	.+110    	; 0x1f78 <fputc>
    1f0a:	2a 94       	dec	r2
    1f0c:	f7 cf       	rjmp	.-18     	; 0x1efc <vfprintf+0x3aa>
    1f0e:	f6 01       	movw	r30, r12
    1f10:	86 81       	ldd	r24, Z+6	; 0x06
    1f12:	97 81       	ldd	r25, Z+7	; 0x07
    1f14:	02 c0       	rjmp	.+4      	; 0x1f1a <vfprintf+0x3c8>
    1f16:	8f ef       	ldi	r24, 0xFF	; 255
    1f18:	9f ef       	ldi	r25, 0xFF	; 255
    1f1a:	2b 96       	adiw	r28, 0x0b	; 11
    1f1c:	0f b6       	in	r0, 0x3f	; 63
    1f1e:	f8 94       	cli
    1f20:	de bf       	out	0x3e, r29	; 62
    1f22:	0f be       	out	0x3f, r0	; 63
    1f24:	cd bf       	out	0x3d, r28	; 61
    1f26:	df 91       	pop	r29
    1f28:	cf 91       	pop	r28
    1f2a:	1f 91       	pop	r17
    1f2c:	0f 91       	pop	r16
    1f2e:	ff 90       	pop	r15
    1f30:	ef 90       	pop	r14
    1f32:	df 90       	pop	r13
    1f34:	cf 90       	pop	r12
    1f36:	bf 90       	pop	r11
    1f38:	af 90       	pop	r10
    1f3a:	9f 90       	pop	r9
    1f3c:	8f 90       	pop	r8
    1f3e:	7f 90       	pop	r7
    1f40:	6f 90       	pop	r6
    1f42:	5f 90       	pop	r5
    1f44:	4f 90       	pop	r4
    1f46:	3f 90       	pop	r3
    1f48:	2f 90       	pop	r2
    1f4a:	08 95       	ret

00001f4c <strnlen_P>:
    1f4c:	fc 01       	movw	r30, r24
    1f4e:	05 90       	lpm	r0, Z+
    1f50:	61 50       	subi	r22, 0x01	; 1
    1f52:	70 40       	sbci	r23, 0x00	; 0
    1f54:	01 10       	cpse	r0, r1
    1f56:	d8 f7       	brcc	.-10     	; 0x1f4e <strnlen_P+0x2>
    1f58:	80 95       	com	r24
    1f5a:	90 95       	com	r25
    1f5c:	8e 0f       	add	r24, r30
    1f5e:	9f 1f       	adc	r25, r31
    1f60:	08 95       	ret

00001f62 <strnlen>:
    1f62:	fc 01       	movw	r30, r24
    1f64:	61 50       	subi	r22, 0x01	; 1
    1f66:	70 40       	sbci	r23, 0x00	; 0
    1f68:	01 90       	ld	r0, Z+
    1f6a:	01 10       	cpse	r0, r1
    1f6c:	d8 f7       	brcc	.-10     	; 0x1f64 <strnlen+0x2>
    1f6e:	80 95       	com	r24
    1f70:	90 95       	com	r25
    1f72:	8e 0f       	add	r24, r30
    1f74:	9f 1f       	adc	r25, r31
    1f76:	08 95       	ret

00001f78 <fputc>:
    1f78:	0f 93       	push	r16
    1f7a:	1f 93       	push	r17
    1f7c:	cf 93       	push	r28
    1f7e:	df 93       	push	r29
    1f80:	fb 01       	movw	r30, r22
    1f82:	23 81       	ldd	r18, Z+3	; 0x03
    1f84:	21 fd       	sbrc	r18, 1
    1f86:	03 c0       	rjmp	.+6      	; 0x1f8e <fputc+0x16>
    1f88:	8f ef       	ldi	r24, 0xFF	; 255
    1f8a:	9f ef       	ldi	r25, 0xFF	; 255
    1f8c:	2c c0       	rjmp	.+88     	; 0x1fe6 <fputc+0x6e>
    1f8e:	22 ff       	sbrs	r18, 2
    1f90:	16 c0       	rjmp	.+44     	; 0x1fbe <fputc+0x46>
    1f92:	46 81       	ldd	r20, Z+6	; 0x06
    1f94:	57 81       	ldd	r21, Z+7	; 0x07
    1f96:	24 81       	ldd	r18, Z+4	; 0x04
    1f98:	35 81       	ldd	r19, Z+5	; 0x05
    1f9a:	42 17       	cp	r20, r18
    1f9c:	53 07       	cpc	r21, r19
    1f9e:	44 f4       	brge	.+16     	; 0x1fb0 <fputc+0x38>
    1fa0:	a0 81       	ld	r26, Z
    1fa2:	b1 81       	ldd	r27, Z+1	; 0x01
    1fa4:	9d 01       	movw	r18, r26
    1fa6:	2f 5f       	subi	r18, 0xFF	; 255
    1fa8:	3f 4f       	sbci	r19, 0xFF	; 255
    1faa:	31 83       	std	Z+1, r19	; 0x01
    1fac:	20 83       	st	Z, r18
    1fae:	8c 93       	st	X, r24
    1fb0:	26 81       	ldd	r18, Z+6	; 0x06
    1fb2:	37 81       	ldd	r19, Z+7	; 0x07
    1fb4:	2f 5f       	subi	r18, 0xFF	; 255
    1fb6:	3f 4f       	sbci	r19, 0xFF	; 255
    1fb8:	37 83       	std	Z+7, r19	; 0x07
    1fba:	26 83       	std	Z+6, r18	; 0x06
    1fbc:	14 c0       	rjmp	.+40     	; 0x1fe6 <fputc+0x6e>
    1fbe:	8b 01       	movw	r16, r22
    1fc0:	ec 01       	movw	r28, r24
    1fc2:	fb 01       	movw	r30, r22
    1fc4:	00 84       	ldd	r0, Z+8	; 0x08
    1fc6:	f1 85       	ldd	r31, Z+9	; 0x09
    1fc8:	e0 2d       	mov	r30, r0
    1fca:	09 95       	icall
    1fcc:	89 2b       	or	r24, r25
    1fce:	e1 f6       	brne	.-72     	; 0x1f88 <fputc+0x10>
    1fd0:	d8 01       	movw	r26, r16
    1fd2:	16 96       	adiw	r26, 0x06	; 6
    1fd4:	8d 91       	ld	r24, X+
    1fd6:	9c 91       	ld	r25, X
    1fd8:	17 97       	sbiw	r26, 0x07	; 7
    1fda:	01 96       	adiw	r24, 0x01	; 1
    1fdc:	17 96       	adiw	r26, 0x07	; 7
    1fde:	9c 93       	st	X, r25
    1fe0:	8e 93       	st	-X, r24
    1fe2:	16 97       	sbiw	r26, 0x06	; 6
    1fe4:	ce 01       	movw	r24, r28
    1fe6:	df 91       	pop	r29
    1fe8:	cf 91       	pop	r28
    1fea:	1f 91       	pop	r17
    1fec:	0f 91       	pop	r16
    1fee:	08 95       	ret

00001ff0 <__ultoa_invert>:
    1ff0:	fa 01       	movw	r30, r20
    1ff2:	aa 27       	eor	r26, r26
    1ff4:	28 30       	cpi	r18, 0x08	; 8
    1ff6:	51 f1       	breq	.+84     	; 0x204c <__ultoa_invert+0x5c>
    1ff8:	20 31       	cpi	r18, 0x10	; 16
    1ffa:	81 f1       	breq	.+96     	; 0x205c <__ultoa_invert+0x6c>
    1ffc:	e8 94       	clt
    1ffe:	6f 93       	push	r22
    2000:	6e 7f       	andi	r22, 0xFE	; 254
    2002:	6e 5f       	subi	r22, 0xFE	; 254
    2004:	7f 4f       	sbci	r23, 0xFF	; 255
    2006:	8f 4f       	sbci	r24, 0xFF	; 255
    2008:	9f 4f       	sbci	r25, 0xFF	; 255
    200a:	af 4f       	sbci	r26, 0xFF	; 255
    200c:	b1 e0       	ldi	r27, 0x01	; 1
    200e:	3e d0       	rcall	.+124    	; 0x208c <__ultoa_invert+0x9c>
    2010:	b4 e0       	ldi	r27, 0x04	; 4
    2012:	3c d0       	rcall	.+120    	; 0x208c <__ultoa_invert+0x9c>
    2014:	67 0f       	add	r22, r23
    2016:	78 1f       	adc	r23, r24
    2018:	89 1f       	adc	r24, r25
    201a:	9a 1f       	adc	r25, r26
    201c:	a1 1d       	adc	r26, r1
    201e:	68 0f       	add	r22, r24
    2020:	79 1f       	adc	r23, r25
    2022:	8a 1f       	adc	r24, r26
    2024:	91 1d       	adc	r25, r1
    2026:	a1 1d       	adc	r26, r1
    2028:	6a 0f       	add	r22, r26
    202a:	71 1d       	adc	r23, r1
    202c:	81 1d       	adc	r24, r1
    202e:	91 1d       	adc	r25, r1
    2030:	a1 1d       	adc	r26, r1
    2032:	20 d0       	rcall	.+64     	; 0x2074 <__ultoa_invert+0x84>
    2034:	09 f4       	brne	.+2      	; 0x2038 <__ultoa_invert+0x48>
    2036:	68 94       	set
    2038:	3f 91       	pop	r19
    203a:	2a e0       	ldi	r18, 0x0A	; 10
    203c:	26 9f       	mul	r18, r22
    203e:	11 24       	eor	r1, r1
    2040:	30 19       	sub	r19, r0
    2042:	30 5d       	subi	r19, 0xD0	; 208
    2044:	31 93       	st	Z+, r19
    2046:	de f6       	brtc	.-74     	; 0x1ffe <__ultoa_invert+0xe>
    2048:	cf 01       	movw	r24, r30
    204a:	08 95       	ret
    204c:	46 2f       	mov	r20, r22
    204e:	47 70       	andi	r20, 0x07	; 7
    2050:	40 5d       	subi	r20, 0xD0	; 208
    2052:	41 93       	st	Z+, r20
    2054:	b3 e0       	ldi	r27, 0x03	; 3
    2056:	0f d0       	rcall	.+30     	; 0x2076 <__ultoa_invert+0x86>
    2058:	c9 f7       	brne	.-14     	; 0x204c <__ultoa_invert+0x5c>
    205a:	f6 cf       	rjmp	.-20     	; 0x2048 <__ultoa_invert+0x58>
    205c:	46 2f       	mov	r20, r22
    205e:	4f 70       	andi	r20, 0x0F	; 15
    2060:	40 5d       	subi	r20, 0xD0	; 208
    2062:	4a 33       	cpi	r20, 0x3A	; 58
    2064:	18 f0       	brcs	.+6      	; 0x206c <__ultoa_invert+0x7c>
    2066:	49 5d       	subi	r20, 0xD9	; 217
    2068:	31 fd       	sbrc	r19, 1
    206a:	40 52       	subi	r20, 0x20	; 32
    206c:	41 93       	st	Z+, r20
    206e:	02 d0       	rcall	.+4      	; 0x2074 <__ultoa_invert+0x84>
    2070:	a9 f7       	brne	.-22     	; 0x205c <__ultoa_invert+0x6c>
    2072:	ea cf       	rjmp	.-44     	; 0x2048 <__ultoa_invert+0x58>
    2074:	b4 e0       	ldi	r27, 0x04	; 4
    2076:	a6 95       	lsr	r26
    2078:	97 95       	ror	r25
    207a:	87 95       	ror	r24
    207c:	77 95       	ror	r23
    207e:	67 95       	ror	r22
    2080:	ba 95       	dec	r27
    2082:	c9 f7       	brne	.-14     	; 0x2076 <__ultoa_invert+0x86>
    2084:	00 97       	sbiw	r24, 0x00	; 0
    2086:	61 05       	cpc	r22, r1
    2088:	71 05       	cpc	r23, r1
    208a:	08 95       	ret
    208c:	9b 01       	movw	r18, r22
    208e:	ac 01       	movw	r20, r24
    2090:	0a 2e       	mov	r0, r26
    2092:	06 94       	lsr	r0
    2094:	57 95       	ror	r21
    2096:	47 95       	ror	r20
    2098:	37 95       	ror	r19
    209a:	27 95       	ror	r18
    209c:	ba 95       	dec	r27
    209e:	c9 f7       	brne	.-14     	; 0x2092 <__ultoa_invert+0xa2>
    20a0:	62 0f       	add	r22, r18
    20a2:	73 1f       	adc	r23, r19
    20a4:	84 1f       	adc	r24, r20
    20a6:	95 1f       	adc	r25, r21
    20a8:	a0 1d       	adc	r26, r0
    20aa:	08 95       	ret

000020ac <_exit>:
    20ac:	f8 94       	cli

000020ae <__stop_program>:
    20ae:	ff cf       	rjmp	.-2      	; 0x20ae <__stop_program>
